
bin/kernel_nopage:     file format elf32-i386


Disassembly of section .text:

00100000 <kern_entry>:
.text
.globl kern_entry
kern_entry:
    # reload temperate gdt (second time) to remap all physical memory
    # virtual_addr 0~4G=linear_addr&physical_addr -KERNBASE~4G-KERNBASE 
    lgdt REALLOC(__gdtdesc)
  100000:	0f 01 15 18 70 11 40 	lgdtl  0x40117018
    movl $KERNEL_DS, %eax
  100007:	b8 10 00 00 00       	mov    $0x10,%eax
    movw %ax, %ds
  10000c:	8e d8                	mov    %eax,%ds
    movw %ax, %es
  10000e:	8e c0                	mov    %eax,%es
    movw %ax, %ss
  100010:	8e d0                	mov    %eax,%ss

    ljmp $KERNEL_CS, $relocated
  100012:	ea 19 00 10 00 08 00 	ljmp   $0x8,$0x100019

00100019 <relocated>:

relocated:

    # set ebp, esp
    movl $0x0, %ebp
  100019:	bd 00 00 00 00       	mov    $0x0,%ebp
    # the kernel stack region is from bootstack -- bootstacktop,
    # the kernel stack size is KSTACKSIZE (8KB)defined in memlayout.h
    movl $bootstacktop, %esp
  10001e:	bc 00 70 11 00       	mov    $0x117000,%esp
    # now kernel stack is ready , call the first C function
    call kern_init
  100023:	e8 02 00 00 00       	call   10002a <kern_init>

00100028 <spin>:

# should never get here
spin:
    jmp spin
  100028:	eb fe                	jmp    100028 <spin>

0010002a <kern_init>:
int kern_init(void) __attribute__((noreturn));
void grade_backtrace(void);
static void lab1_switch_test(void);

int
kern_init(void) {
  10002a:	55                   	push   %ebp
  10002b:	89 e5                	mov    %esp,%ebp
  10002d:	83 ec 18             	sub    $0x18,%esp
    extern char edata[], end[];
    memset(edata, 0, end - edata);
  100030:	ba c8 89 11 00       	mov    $0x1189c8,%edx
  100035:	b8 36 7a 11 00       	mov    $0x117a36,%eax
  10003a:	29 c2                	sub    %eax,%edx
  10003c:	89 d0                	mov    %edx,%eax
  10003e:	83 ec 04             	sub    $0x4,%esp
  100041:	50                   	push   %eax
  100042:	6a 00                	push   $0x0
  100044:	68 36 7a 11 00       	push   $0x117a36
  100049:	e8 2a 54 00 00       	call   105478 <memset>
  10004e:	83 c4 10             	add    $0x10,%esp

    cons_init();                // init the console
  100051:	e8 6a 15 00 00       	call   1015c0 <cons_init>

    const char *message = "(THU.CST) os is loading ...";
  100056:	c7 45 f4 20 5c 10 00 	movl   $0x105c20,-0xc(%ebp)
    cprintf("%s\n\n", message);
  10005d:	83 ec 08             	sub    $0x8,%esp
  100060:	ff 75 f4             	pushl  -0xc(%ebp)
  100063:	68 3c 5c 10 00       	push   $0x105c3c
  100068:	e8 02 02 00 00       	call   10026f <cprintf>
  10006d:	83 c4 10             	add    $0x10,%esp

    print_kerninfo();
  100070:	e8 84 08 00 00       	call   1008f9 <print_kerninfo>

    grade_backtrace();
  100075:	e8 74 00 00 00       	call   1000ee <grade_backtrace>

    pmm_init();                 // init physical memory management
  10007a:	e8 b2 31 00 00       	call   103231 <pmm_init>

    pic_init();                 // init interrupt controller
  10007f:	e8 ae 16 00 00       	call   101732 <pic_init>
    idt_init();                 // init interrupt descriptor table
  100084:	e8 0f 18 00 00       	call   101898 <idt_init>

    clock_init();               // init clock interrupt
  100089:	e8 d9 0c 00 00       	call   100d67 <clock_init>
    intr_enable();              // enable irq interrupt
  10008e:	e8 dc 17 00 00       	call   10186f <intr_enable>
    //LAB1: CAHLLENGE 1 If you try to do it, uncomment lab1_switch_test()
    // user/kernel mode switch test
    //lab1_switch_test();

    /* do nothing */
    while (1);
  100093:	eb fe                	jmp    100093 <kern_init+0x69>

00100095 <grade_backtrace2>:
}

void __attribute__((noinline))
grade_backtrace2(int arg0, int arg1, int arg2, int arg3) {
  100095:	55                   	push   %ebp
  100096:	89 e5                	mov    %esp,%ebp
  100098:	83 ec 08             	sub    $0x8,%esp
    mon_backtrace(0, NULL, NULL);
  10009b:	83 ec 04             	sub    $0x4,%esp
  10009e:	6a 00                	push   $0x0
  1000a0:	6a 00                	push   $0x0
  1000a2:	6a 00                	push   $0x0
  1000a4:	e8 ac 0c 00 00       	call   100d55 <mon_backtrace>
  1000a9:	83 c4 10             	add    $0x10,%esp
}
  1000ac:	90                   	nop
  1000ad:	c9                   	leave  
  1000ae:	c3                   	ret    

001000af <grade_backtrace1>:

void __attribute__((noinline))
grade_backtrace1(int arg0, int arg1) {
  1000af:	55                   	push   %ebp
  1000b0:	89 e5                	mov    %esp,%ebp
  1000b2:	53                   	push   %ebx
  1000b3:	83 ec 04             	sub    $0x4,%esp
    grade_backtrace2(arg0, (int)&arg0, arg1, (int)&arg1);
  1000b6:	8d 4d 0c             	lea    0xc(%ebp),%ecx
  1000b9:	8b 55 0c             	mov    0xc(%ebp),%edx
  1000bc:	8d 5d 08             	lea    0x8(%ebp),%ebx
  1000bf:	8b 45 08             	mov    0x8(%ebp),%eax
  1000c2:	51                   	push   %ecx
  1000c3:	52                   	push   %edx
  1000c4:	53                   	push   %ebx
  1000c5:	50                   	push   %eax
  1000c6:	e8 ca ff ff ff       	call   100095 <grade_backtrace2>
  1000cb:	83 c4 10             	add    $0x10,%esp
}
  1000ce:	90                   	nop
  1000cf:	8b 5d fc             	mov    -0x4(%ebp),%ebx
  1000d2:	c9                   	leave  
  1000d3:	c3                   	ret    

001000d4 <grade_backtrace0>:

void __attribute__((noinline))
grade_backtrace0(int arg0, int arg1, int arg2) {
  1000d4:	55                   	push   %ebp
  1000d5:	89 e5                	mov    %esp,%ebp
  1000d7:	83 ec 08             	sub    $0x8,%esp
    grade_backtrace1(arg0, arg2);
  1000da:	83 ec 08             	sub    $0x8,%esp
  1000dd:	ff 75 10             	pushl  0x10(%ebp)
  1000e0:	ff 75 08             	pushl  0x8(%ebp)
  1000e3:	e8 c7 ff ff ff       	call   1000af <grade_backtrace1>
  1000e8:	83 c4 10             	add    $0x10,%esp
}
  1000eb:	90                   	nop
  1000ec:	c9                   	leave  
  1000ed:	c3                   	ret    

001000ee <grade_backtrace>:

void
grade_backtrace(void) {
  1000ee:	55                   	push   %ebp
  1000ef:	89 e5                	mov    %esp,%ebp
  1000f1:	83 ec 08             	sub    $0x8,%esp
    grade_backtrace0(0, (int)kern_init, 0xffff0000);
  1000f4:	b8 2a 00 10 00       	mov    $0x10002a,%eax
  1000f9:	83 ec 04             	sub    $0x4,%esp
  1000fc:	68 00 00 ff ff       	push   $0xffff0000
  100101:	50                   	push   %eax
  100102:	6a 00                	push   $0x0
  100104:	e8 cb ff ff ff       	call   1000d4 <grade_backtrace0>
  100109:	83 c4 10             	add    $0x10,%esp
}
  10010c:	90                   	nop
  10010d:	c9                   	leave  
  10010e:	c3                   	ret    

0010010f <lab1_print_cur_status>:

static void
lab1_print_cur_status(void) {
  10010f:	55                   	push   %ebp
  100110:	89 e5                	mov    %esp,%ebp
  100112:	83 ec 18             	sub    $0x18,%esp
    static int round = 0;
    uint16_t reg1, reg2, reg3, reg4;
    asm volatile (
  100115:	8c 4d f6             	mov    %cs,-0xa(%ebp)
  100118:	8c 5d f4             	mov    %ds,-0xc(%ebp)
  10011b:	8c 45 f2             	mov    %es,-0xe(%ebp)
  10011e:	8c 55 f0             	mov    %ss,-0x10(%ebp)
            "mov %%cs, %0;"
            "mov %%ds, %1;"
            "mov %%es, %2;"
            "mov %%ss, %3;"
            : "=m"(reg1), "=m"(reg2), "=m"(reg3), "=m"(reg4));
    cprintf("%d: @ring %d\n", round, reg1 & 3);
  100121:	0f b7 45 f6          	movzwl -0xa(%ebp),%eax
  100125:	0f b7 c0             	movzwl %ax,%eax
  100128:	83 e0 03             	and    $0x3,%eax
  10012b:	89 c2                	mov    %eax,%edx
  10012d:	a1 40 7a 11 00       	mov    0x117a40,%eax
  100132:	83 ec 04             	sub    $0x4,%esp
  100135:	52                   	push   %edx
  100136:	50                   	push   %eax
  100137:	68 41 5c 10 00       	push   $0x105c41
  10013c:	e8 2e 01 00 00       	call   10026f <cprintf>
  100141:	83 c4 10             	add    $0x10,%esp
    cprintf("%d:  cs = %x\n", round, reg1);
  100144:	0f b7 45 f6          	movzwl -0xa(%ebp),%eax
  100148:	0f b7 d0             	movzwl %ax,%edx
  10014b:	a1 40 7a 11 00       	mov    0x117a40,%eax
  100150:	83 ec 04             	sub    $0x4,%esp
  100153:	52                   	push   %edx
  100154:	50                   	push   %eax
  100155:	68 4f 5c 10 00       	push   $0x105c4f
  10015a:	e8 10 01 00 00       	call   10026f <cprintf>
  10015f:	83 c4 10             	add    $0x10,%esp
    cprintf("%d:  ds = %x\n", round, reg2);
  100162:	0f b7 45 f4          	movzwl -0xc(%ebp),%eax
  100166:	0f b7 d0             	movzwl %ax,%edx
  100169:	a1 40 7a 11 00       	mov    0x117a40,%eax
  10016e:	83 ec 04             	sub    $0x4,%esp
  100171:	52                   	push   %edx
  100172:	50                   	push   %eax
  100173:	68 5d 5c 10 00       	push   $0x105c5d
  100178:	e8 f2 00 00 00       	call   10026f <cprintf>
  10017d:	83 c4 10             	add    $0x10,%esp
    cprintf("%d:  es = %x\n", round, reg3);
  100180:	0f b7 45 f2          	movzwl -0xe(%ebp),%eax
  100184:	0f b7 d0             	movzwl %ax,%edx
  100187:	a1 40 7a 11 00       	mov    0x117a40,%eax
  10018c:	83 ec 04             	sub    $0x4,%esp
  10018f:	52                   	push   %edx
  100190:	50                   	push   %eax
  100191:	68 6b 5c 10 00       	push   $0x105c6b
  100196:	e8 d4 00 00 00       	call   10026f <cprintf>
  10019b:	83 c4 10             	add    $0x10,%esp
    cprintf("%d:  ss = %x\n", round, reg4);
  10019e:	0f b7 45 f0          	movzwl -0x10(%ebp),%eax
  1001a2:	0f b7 d0             	movzwl %ax,%edx
  1001a5:	a1 40 7a 11 00       	mov    0x117a40,%eax
  1001aa:	83 ec 04             	sub    $0x4,%esp
  1001ad:	52                   	push   %edx
  1001ae:	50                   	push   %eax
  1001af:	68 79 5c 10 00       	push   $0x105c79
  1001b4:	e8 b6 00 00 00       	call   10026f <cprintf>
  1001b9:	83 c4 10             	add    $0x10,%esp
    round ++;
  1001bc:	a1 40 7a 11 00       	mov    0x117a40,%eax
  1001c1:	83 c0 01             	add    $0x1,%eax
  1001c4:	a3 40 7a 11 00       	mov    %eax,0x117a40
}
  1001c9:	90                   	nop
  1001ca:	c9                   	leave  
  1001cb:	c3                   	ret    

001001cc <lab1_switch_to_user>:

static void
lab1_switch_to_user(void) {
  1001cc:	55                   	push   %ebp
  1001cd:	89 e5                	mov    %esp,%ebp
    //LAB1 CHALLENGE 1 : TODO
    // "movl %%ebp, %%esp" esure that before ret, esp = ebp -> old ebp
    asm volatile (
  1001cf:	cd 78                	int    $0x78
  1001d1:	89 ec                	mov    %ebp,%esp
	    "int %0;"
        "movl %%ebp, %%esp"
	    : 
	    : "i"(T_SWITCH_TOU)
	);
}
  1001d3:	90                   	nop
  1001d4:	5d                   	pop    %ebp
  1001d5:	c3                   	ret    

001001d6 <lab1_switch_to_kernel>:

static void
lab1_switch_to_kernel(void) {
  1001d6:	55                   	push   %ebp
  1001d7:	89 e5                	mov    %esp,%ebp
    //LAB1 CHALLENGE 1 :  TODO
    // cprintf("in lab1_switch_to_kernel\n");
    asm volatile (
  1001d9:	cd 79                	int    $0x79
  1001db:	89 ec                	mov    %ebp,%esp
	    "int %0;"
        "movl %%ebp, %%esp"
        : 
	    : "i"(T_SWITCH_TOK)
	);
}
  1001dd:	90                   	nop
  1001de:	5d                   	pop    %ebp
  1001df:	c3                   	ret    

001001e0 <lab1_switch_test>:

static void
lab1_switch_test(void) {
  1001e0:	55                   	push   %ebp
  1001e1:	89 e5                	mov    %esp,%ebp
  1001e3:	83 ec 08             	sub    $0x8,%esp
    lab1_print_cur_status();
  1001e6:	e8 24 ff ff ff       	call   10010f <lab1_print_cur_status>
    cprintf("+++ switch to  user  mode +++\n");
  1001eb:	83 ec 0c             	sub    $0xc,%esp
  1001ee:	68 88 5c 10 00       	push   $0x105c88
  1001f3:	e8 77 00 00 00       	call   10026f <cprintf>
  1001f8:	83 c4 10             	add    $0x10,%esp
    lab1_switch_to_user();
  1001fb:	e8 cc ff ff ff       	call   1001cc <lab1_switch_to_user>
    lab1_print_cur_status();
  100200:	e8 0a ff ff ff       	call   10010f <lab1_print_cur_status>
    cprintf("+++ switch to kernel mode +++\n");
  100205:	83 ec 0c             	sub    $0xc,%esp
  100208:	68 a8 5c 10 00       	push   $0x105ca8
  10020d:	e8 5d 00 00 00       	call   10026f <cprintf>
  100212:	83 c4 10             	add    $0x10,%esp
    lab1_switch_to_kernel();
  100215:	e8 bc ff ff ff       	call   1001d6 <lab1_switch_to_kernel>
    lab1_print_cur_status();
  10021a:	e8 f0 fe ff ff       	call   10010f <lab1_print_cur_status>
}
  10021f:	90                   	nop
  100220:	c9                   	leave  
  100221:	c3                   	ret    

00100222 <cputch>:
/* *
 * cputch - writes a single character @c to stdout, and it will
 * increace the value of counter pointed by @cnt.
 * */
static void
cputch(int c, int *cnt) {
  100222:	55                   	push   %ebp
  100223:	89 e5                	mov    %esp,%ebp
  100225:	83 ec 08             	sub    $0x8,%esp
    cons_putc(c);
  100228:	83 ec 0c             	sub    $0xc,%esp
  10022b:	ff 75 08             	pushl  0x8(%ebp)
  10022e:	e8 be 13 00 00       	call   1015f1 <cons_putc>
  100233:	83 c4 10             	add    $0x10,%esp
    (*cnt) ++;
  100236:	8b 45 0c             	mov    0xc(%ebp),%eax
  100239:	8b 00                	mov    (%eax),%eax
  10023b:	8d 50 01             	lea    0x1(%eax),%edx
  10023e:	8b 45 0c             	mov    0xc(%ebp),%eax
  100241:	89 10                	mov    %edx,(%eax)
}
  100243:	90                   	nop
  100244:	c9                   	leave  
  100245:	c3                   	ret    

00100246 <vcprintf>:
 *
 * Call this function if you are already dealing with a va_list.
 * Or you probably want cprintf() instead.
 * */
int
vcprintf(const char *fmt, va_list ap) {
  100246:	55                   	push   %ebp
  100247:	89 e5                	mov    %esp,%ebp
  100249:	83 ec 18             	sub    $0x18,%esp
    int cnt = 0;
  10024c:	c7 45 f4 00 00 00 00 	movl   $0x0,-0xc(%ebp)
    vprintfmt((void*)cputch, &cnt, fmt, ap);
  100253:	ff 75 0c             	pushl  0xc(%ebp)
  100256:	ff 75 08             	pushl  0x8(%ebp)
  100259:	8d 45 f4             	lea    -0xc(%ebp),%eax
  10025c:	50                   	push   %eax
  10025d:	68 22 02 10 00       	push   $0x100222
  100262:	e8 47 55 00 00       	call   1057ae <vprintfmt>
  100267:	83 c4 10             	add    $0x10,%esp
    return cnt;
  10026a:	8b 45 f4             	mov    -0xc(%ebp),%eax
}
  10026d:	c9                   	leave  
  10026e:	c3                   	ret    

0010026f <cprintf>:
 *
 * The return value is the number of characters which would be
 * written to stdout.
 * */
int
cprintf(const char *fmt, ...) {
  10026f:	55                   	push   %ebp
  100270:	89 e5                	mov    %esp,%ebp
  100272:	83 ec 18             	sub    $0x18,%esp
    va_list ap;
    int cnt;
    va_start(ap, fmt);
  100275:	8d 45 0c             	lea    0xc(%ebp),%eax
  100278:	89 45 f0             	mov    %eax,-0x10(%ebp)
    cnt = vcprintf(fmt, ap);
  10027b:	8b 45 f0             	mov    -0x10(%ebp),%eax
  10027e:	83 ec 08             	sub    $0x8,%esp
  100281:	50                   	push   %eax
  100282:	ff 75 08             	pushl  0x8(%ebp)
  100285:	e8 bc ff ff ff       	call   100246 <vcprintf>
  10028a:	83 c4 10             	add    $0x10,%esp
  10028d:	89 45 f4             	mov    %eax,-0xc(%ebp)
    va_end(ap);
    return cnt;
  100290:	8b 45 f4             	mov    -0xc(%ebp),%eax
}
  100293:	c9                   	leave  
  100294:	c3                   	ret    

00100295 <cputchar>:

/* cputchar - writes a single character to stdout */
void
cputchar(int c) {
  100295:	55                   	push   %ebp
  100296:	89 e5                	mov    %esp,%ebp
  100298:	83 ec 08             	sub    $0x8,%esp
    cons_putc(c);
  10029b:	83 ec 0c             	sub    $0xc,%esp
  10029e:	ff 75 08             	pushl  0x8(%ebp)
  1002a1:	e8 4b 13 00 00       	call   1015f1 <cons_putc>
  1002a6:	83 c4 10             	add    $0x10,%esp
}
  1002a9:	90                   	nop
  1002aa:	c9                   	leave  
  1002ab:	c3                   	ret    

001002ac <cputs>:
/* *
 * cputs- writes the string pointed by @str to stdout and
 * appends a newline character.
 * */
int
cputs(const char *str) {
  1002ac:	55                   	push   %ebp
  1002ad:	89 e5                	mov    %esp,%ebp
  1002af:	83 ec 18             	sub    $0x18,%esp
    int cnt = 0;
  1002b2:	c7 45 f0 00 00 00 00 	movl   $0x0,-0x10(%ebp)
    char c;
    while ((c = *str ++) != '\0') {
  1002b9:	eb 14                	jmp    1002cf <cputs+0x23>
        cputch(c, &cnt);
  1002bb:	0f be 45 f7          	movsbl -0x9(%ebp),%eax
  1002bf:	83 ec 08             	sub    $0x8,%esp
  1002c2:	8d 55 f0             	lea    -0x10(%ebp),%edx
  1002c5:	52                   	push   %edx
  1002c6:	50                   	push   %eax
  1002c7:	e8 56 ff ff ff       	call   100222 <cputch>
  1002cc:	83 c4 10             	add    $0x10,%esp
 * */
int
cputs(const char *str) {
    int cnt = 0;
    char c;
    while ((c = *str ++) != '\0') {
  1002cf:	8b 45 08             	mov    0x8(%ebp),%eax
  1002d2:	8d 50 01             	lea    0x1(%eax),%edx
  1002d5:	89 55 08             	mov    %edx,0x8(%ebp)
  1002d8:	0f b6 00             	movzbl (%eax),%eax
  1002db:	88 45 f7             	mov    %al,-0x9(%ebp)
  1002de:	80 7d f7 00          	cmpb   $0x0,-0x9(%ebp)
  1002e2:	75 d7                	jne    1002bb <cputs+0xf>
        cputch(c, &cnt);
    }
    cputch('\n', &cnt);
  1002e4:	83 ec 08             	sub    $0x8,%esp
  1002e7:	8d 45 f0             	lea    -0x10(%ebp),%eax
  1002ea:	50                   	push   %eax
  1002eb:	6a 0a                	push   $0xa
  1002ed:	e8 30 ff ff ff       	call   100222 <cputch>
  1002f2:	83 c4 10             	add    $0x10,%esp
    return cnt;
  1002f5:	8b 45 f0             	mov    -0x10(%ebp),%eax
}
  1002f8:	c9                   	leave  
  1002f9:	c3                   	ret    

001002fa <getchar>:

/* getchar - reads a single non-zero character from stdin */
int
getchar(void) {
  1002fa:	55                   	push   %ebp
  1002fb:	89 e5                	mov    %esp,%ebp
  1002fd:	83 ec 18             	sub    $0x18,%esp
    int c;
    while ((c = cons_getc()) == 0)
  100300:	e8 35 13 00 00       	call   10163a <cons_getc>
  100305:	89 45 f4             	mov    %eax,-0xc(%ebp)
  100308:	83 7d f4 00          	cmpl   $0x0,-0xc(%ebp)
  10030c:	74 f2                	je     100300 <getchar+0x6>
        /* do nothing */;
    return c;
  10030e:	8b 45 f4             	mov    -0xc(%ebp),%eax
}
  100311:	c9                   	leave  
  100312:	c3                   	ret    

00100313 <readline>:
 * The readline() function returns the text of the line read. If some errors
 * are happened, NULL is returned. The return value is a global variable,
 * thus it should be copied before it is used.
 * */
char *
readline(const char *prompt) {
  100313:	55                   	push   %ebp
  100314:	89 e5                	mov    %esp,%ebp
  100316:	83 ec 18             	sub    $0x18,%esp
    if (prompt != NULL) {
  100319:	83 7d 08 00          	cmpl   $0x0,0x8(%ebp)
  10031d:	74 13                	je     100332 <readline+0x1f>
        cprintf("%s", prompt);
  10031f:	83 ec 08             	sub    $0x8,%esp
  100322:	ff 75 08             	pushl  0x8(%ebp)
  100325:	68 c7 5c 10 00       	push   $0x105cc7
  10032a:	e8 40 ff ff ff       	call   10026f <cprintf>
  10032f:	83 c4 10             	add    $0x10,%esp
    }
    int i = 0, c;
  100332:	c7 45 f4 00 00 00 00 	movl   $0x0,-0xc(%ebp)
    while (1) {
        c = getchar();
  100339:	e8 bc ff ff ff       	call   1002fa <getchar>
  10033e:	89 45 f0             	mov    %eax,-0x10(%ebp)
        if (c < 0) {
  100341:	83 7d f0 00          	cmpl   $0x0,-0x10(%ebp)
  100345:	79 0a                	jns    100351 <readline+0x3e>
            return NULL;
  100347:	b8 00 00 00 00       	mov    $0x0,%eax
  10034c:	e9 82 00 00 00       	jmp    1003d3 <readline+0xc0>
        }
        else if (c >= ' ' && i < BUFSIZE - 1) {
  100351:	83 7d f0 1f          	cmpl   $0x1f,-0x10(%ebp)
  100355:	7e 2b                	jle    100382 <readline+0x6f>
  100357:	81 7d f4 fe 03 00 00 	cmpl   $0x3fe,-0xc(%ebp)
  10035e:	7f 22                	jg     100382 <readline+0x6f>
            cputchar(c);
  100360:	83 ec 0c             	sub    $0xc,%esp
  100363:	ff 75 f0             	pushl  -0x10(%ebp)
  100366:	e8 2a ff ff ff       	call   100295 <cputchar>
  10036b:	83 c4 10             	add    $0x10,%esp
            buf[i ++] = c;
  10036e:	8b 45 f4             	mov    -0xc(%ebp),%eax
  100371:	8d 50 01             	lea    0x1(%eax),%edx
  100374:	89 55 f4             	mov    %edx,-0xc(%ebp)
  100377:	8b 55 f0             	mov    -0x10(%ebp),%edx
  10037a:	88 90 60 7a 11 00    	mov    %dl,0x117a60(%eax)
  100380:	eb 4c                	jmp    1003ce <readline+0xbb>
        }
        else if (c == '\b' && i > 0) {
  100382:	83 7d f0 08          	cmpl   $0x8,-0x10(%ebp)
  100386:	75 1a                	jne    1003a2 <readline+0x8f>
  100388:	83 7d f4 00          	cmpl   $0x0,-0xc(%ebp)
  10038c:	7e 14                	jle    1003a2 <readline+0x8f>
            cputchar(c);
  10038e:	83 ec 0c             	sub    $0xc,%esp
  100391:	ff 75 f0             	pushl  -0x10(%ebp)
  100394:	e8 fc fe ff ff       	call   100295 <cputchar>
  100399:	83 c4 10             	add    $0x10,%esp
            i --;
  10039c:	83 6d f4 01          	subl   $0x1,-0xc(%ebp)
  1003a0:	eb 2c                	jmp    1003ce <readline+0xbb>
        }
        else if (c == '\n' || c == '\r') {
  1003a2:	83 7d f0 0a          	cmpl   $0xa,-0x10(%ebp)
  1003a6:	74 06                	je     1003ae <readline+0x9b>
  1003a8:	83 7d f0 0d          	cmpl   $0xd,-0x10(%ebp)
  1003ac:	75 8b                	jne    100339 <readline+0x26>
            cputchar(c);
  1003ae:	83 ec 0c             	sub    $0xc,%esp
  1003b1:	ff 75 f0             	pushl  -0x10(%ebp)
  1003b4:	e8 dc fe ff ff       	call   100295 <cputchar>
  1003b9:	83 c4 10             	add    $0x10,%esp
            buf[i] = '\0';
  1003bc:	8b 45 f4             	mov    -0xc(%ebp),%eax
  1003bf:	05 60 7a 11 00       	add    $0x117a60,%eax
  1003c4:	c6 00 00             	movb   $0x0,(%eax)
            return buf;
  1003c7:	b8 60 7a 11 00       	mov    $0x117a60,%eax
  1003cc:	eb 05                	jmp    1003d3 <readline+0xc0>
        }
    }
  1003ce:	e9 66 ff ff ff       	jmp    100339 <readline+0x26>
}
  1003d3:	c9                   	leave  
  1003d4:	c3                   	ret    

001003d5 <__panic>:
/* *
 * __panic - __panic is called on unresolvable fatal errors. it prints
 * "panic: 'message'", and then enters the kernel monitor.
 * */
void
__panic(const char *file, int line, const char *fmt, ...) {
  1003d5:	55                   	push   %ebp
  1003d6:	89 e5                	mov    %esp,%ebp
  1003d8:	83 ec 18             	sub    $0x18,%esp
    if (is_panic) {
  1003db:	a1 60 7e 11 00       	mov    0x117e60,%eax
  1003e0:	85 c0                	test   %eax,%eax
  1003e2:	75 4a                	jne    10042e <__panic+0x59>
        goto panic_dead;
    }
    is_panic = 1;
  1003e4:	c7 05 60 7e 11 00 01 	movl   $0x1,0x117e60
  1003eb:	00 00 00 

    // print the 'message'
    va_list ap;
    va_start(ap, fmt);
  1003ee:	8d 45 14             	lea    0x14(%ebp),%eax
  1003f1:	89 45 f4             	mov    %eax,-0xc(%ebp)
    cprintf("kernel panic at %s:%d:\n    ", file, line);
  1003f4:	83 ec 04             	sub    $0x4,%esp
  1003f7:	ff 75 0c             	pushl  0xc(%ebp)
  1003fa:	ff 75 08             	pushl  0x8(%ebp)
  1003fd:	68 ca 5c 10 00       	push   $0x105cca
  100402:	e8 68 fe ff ff       	call   10026f <cprintf>
  100407:	83 c4 10             	add    $0x10,%esp
    vcprintf(fmt, ap);
  10040a:	8b 45 f4             	mov    -0xc(%ebp),%eax
  10040d:	83 ec 08             	sub    $0x8,%esp
  100410:	50                   	push   %eax
  100411:	ff 75 10             	pushl  0x10(%ebp)
  100414:	e8 2d fe ff ff       	call   100246 <vcprintf>
  100419:	83 c4 10             	add    $0x10,%esp
    cprintf("\n");
  10041c:	83 ec 0c             	sub    $0xc,%esp
  10041f:	68 e6 5c 10 00       	push   $0x105ce6
  100424:	e8 46 fe ff ff       	call   10026f <cprintf>
  100429:	83 c4 10             	add    $0x10,%esp
  10042c:	eb 01                	jmp    10042f <__panic+0x5a>
 * "panic: 'message'", and then enters the kernel monitor.
 * */
void
__panic(const char *file, int line, const char *fmt, ...) {
    if (is_panic) {
        goto panic_dead;
  10042e:	90                   	nop
    vcprintf(fmt, ap);
    cprintf("\n");
    va_end(ap);

panic_dead:
    intr_disable();
  10042f:	e8 42 14 00 00       	call   101876 <intr_disable>
    while (1) {
        kmonitor(NULL);
  100434:	83 ec 0c             	sub    $0xc,%esp
  100437:	6a 00                	push   $0x0
  100439:	e8 3d 08 00 00       	call   100c7b <kmonitor>
  10043e:	83 c4 10             	add    $0x10,%esp
    }
  100441:	eb f1                	jmp    100434 <__panic+0x5f>

00100443 <__warn>:
}

/* __warn - like panic, but don't */
void
__warn(const char *file, int line, const char *fmt, ...) {
  100443:	55                   	push   %ebp
  100444:	89 e5                	mov    %esp,%ebp
  100446:	83 ec 18             	sub    $0x18,%esp
    va_list ap;
    va_start(ap, fmt);
  100449:	8d 45 14             	lea    0x14(%ebp),%eax
  10044c:	89 45 f4             	mov    %eax,-0xc(%ebp)
    cprintf("kernel warning at %s:%d:\n    ", file, line);
  10044f:	83 ec 04             	sub    $0x4,%esp
  100452:	ff 75 0c             	pushl  0xc(%ebp)
  100455:	ff 75 08             	pushl  0x8(%ebp)
  100458:	68 e8 5c 10 00       	push   $0x105ce8
  10045d:	e8 0d fe ff ff       	call   10026f <cprintf>
  100462:	83 c4 10             	add    $0x10,%esp
    vcprintf(fmt, ap);
  100465:	8b 45 f4             	mov    -0xc(%ebp),%eax
  100468:	83 ec 08             	sub    $0x8,%esp
  10046b:	50                   	push   %eax
  10046c:	ff 75 10             	pushl  0x10(%ebp)
  10046f:	e8 d2 fd ff ff       	call   100246 <vcprintf>
  100474:	83 c4 10             	add    $0x10,%esp
    cprintf("\n");
  100477:	83 ec 0c             	sub    $0xc,%esp
  10047a:	68 e6 5c 10 00       	push   $0x105ce6
  10047f:	e8 eb fd ff ff       	call   10026f <cprintf>
  100484:	83 c4 10             	add    $0x10,%esp
    va_end(ap);
}
  100487:	90                   	nop
  100488:	c9                   	leave  
  100489:	c3                   	ret    

0010048a <is_kernel_panic>:

bool
is_kernel_panic(void) {
  10048a:	55                   	push   %ebp
  10048b:	89 e5                	mov    %esp,%ebp
    return is_panic;
  10048d:	a1 60 7e 11 00       	mov    0x117e60,%eax
}
  100492:	5d                   	pop    %ebp
  100493:	c3                   	ret    

00100494 <stab_binsearch>:
 *      stab_binsearch(stabs, &left, &right, N_SO, 0xf0100184);
 * will exit setting left = 118, right = 554.
 * */
static void
stab_binsearch(const struct stab *stabs, int *region_left, int *region_right,
           int type, uintptr_t addr) {
  100494:	55                   	push   %ebp
  100495:	89 e5                	mov    %esp,%ebp
  100497:	83 ec 20             	sub    $0x20,%esp
    int l = *region_left, r = *region_right, any_matches = 0;
  10049a:	8b 45 0c             	mov    0xc(%ebp),%eax
  10049d:	8b 00                	mov    (%eax),%eax
  10049f:	89 45 fc             	mov    %eax,-0x4(%ebp)
  1004a2:	8b 45 10             	mov    0x10(%ebp),%eax
  1004a5:	8b 00                	mov    (%eax),%eax
  1004a7:	89 45 f8             	mov    %eax,-0x8(%ebp)
  1004aa:	c7 45 f4 00 00 00 00 	movl   $0x0,-0xc(%ebp)

    while (l <= r) {
  1004b1:	e9 d2 00 00 00       	jmp    100588 <stab_binsearch+0xf4>
        int true_m = (l + r) / 2, m = true_m;
  1004b6:	8b 55 fc             	mov    -0x4(%ebp),%edx
  1004b9:	8b 45 f8             	mov    -0x8(%ebp),%eax
  1004bc:	01 d0                	add    %edx,%eax
  1004be:	89 c2                	mov    %eax,%edx
  1004c0:	c1 ea 1f             	shr    $0x1f,%edx
  1004c3:	01 d0                	add    %edx,%eax
  1004c5:	d1 f8                	sar    %eax
  1004c7:	89 45 ec             	mov    %eax,-0x14(%ebp)
  1004ca:	8b 45 ec             	mov    -0x14(%ebp),%eax
  1004cd:	89 45 f0             	mov    %eax,-0x10(%ebp)

        // search for earliest stab with right type
        while (m >= l && stabs[m].n_type != type) {
  1004d0:	eb 04                	jmp    1004d6 <stab_binsearch+0x42>
            m --;
  1004d2:	83 6d f0 01          	subl   $0x1,-0x10(%ebp)

    while (l <= r) {
        int true_m = (l + r) / 2, m = true_m;

        // search for earliest stab with right type
        while (m >= l && stabs[m].n_type != type) {
  1004d6:	8b 45 f0             	mov    -0x10(%ebp),%eax
  1004d9:	3b 45 fc             	cmp    -0x4(%ebp),%eax
  1004dc:	7c 1f                	jl     1004fd <stab_binsearch+0x69>
  1004de:	8b 55 f0             	mov    -0x10(%ebp),%edx
  1004e1:	89 d0                	mov    %edx,%eax
  1004e3:	01 c0                	add    %eax,%eax
  1004e5:	01 d0                	add    %edx,%eax
  1004e7:	c1 e0 02             	shl    $0x2,%eax
  1004ea:	89 c2                	mov    %eax,%edx
  1004ec:	8b 45 08             	mov    0x8(%ebp),%eax
  1004ef:	01 d0                	add    %edx,%eax
  1004f1:	0f b6 40 04          	movzbl 0x4(%eax),%eax
  1004f5:	0f b6 c0             	movzbl %al,%eax
  1004f8:	3b 45 14             	cmp    0x14(%ebp),%eax
  1004fb:	75 d5                	jne    1004d2 <stab_binsearch+0x3e>
            m --;
        }
        if (m < l) {    // no match in [l, m]
  1004fd:	8b 45 f0             	mov    -0x10(%ebp),%eax
  100500:	3b 45 fc             	cmp    -0x4(%ebp),%eax
  100503:	7d 0b                	jge    100510 <stab_binsearch+0x7c>
            l = true_m + 1;
  100505:	8b 45 ec             	mov    -0x14(%ebp),%eax
  100508:	83 c0 01             	add    $0x1,%eax
  10050b:	89 45 fc             	mov    %eax,-0x4(%ebp)
            continue;
  10050e:	eb 78                	jmp    100588 <stab_binsearch+0xf4>
        }

        // actual binary search
        any_matches = 1;
  100510:	c7 45 f4 01 00 00 00 	movl   $0x1,-0xc(%ebp)
        if (stabs[m].n_value < addr) {
  100517:	8b 55 f0             	mov    -0x10(%ebp),%edx
  10051a:	89 d0                	mov    %edx,%eax
  10051c:	01 c0                	add    %eax,%eax
  10051e:	01 d0                	add    %edx,%eax
  100520:	c1 e0 02             	shl    $0x2,%eax
  100523:	89 c2                	mov    %eax,%edx
  100525:	8b 45 08             	mov    0x8(%ebp),%eax
  100528:	01 d0                	add    %edx,%eax
  10052a:	8b 40 08             	mov    0x8(%eax),%eax
  10052d:	3b 45 18             	cmp    0x18(%ebp),%eax
  100530:	73 13                	jae    100545 <stab_binsearch+0xb1>
            *region_left = m;
  100532:	8b 45 0c             	mov    0xc(%ebp),%eax
  100535:	8b 55 f0             	mov    -0x10(%ebp),%edx
  100538:	89 10                	mov    %edx,(%eax)
            l = true_m + 1;
  10053a:	8b 45 ec             	mov    -0x14(%ebp),%eax
  10053d:	83 c0 01             	add    $0x1,%eax
  100540:	89 45 fc             	mov    %eax,-0x4(%ebp)
  100543:	eb 43                	jmp    100588 <stab_binsearch+0xf4>
        } else if (stabs[m].n_value > addr) {
  100545:	8b 55 f0             	mov    -0x10(%ebp),%edx
  100548:	89 d0                	mov    %edx,%eax
  10054a:	01 c0                	add    %eax,%eax
  10054c:	01 d0                	add    %edx,%eax
  10054e:	c1 e0 02             	shl    $0x2,%eax
  100551:	89 c2                	mov    %eax,%edx
  100553:	8b 45 08             	mov    0x8(%ebp),%eax
  100556:	01 d0                	add    %edx,%eax
  100558:	8b 40 08             	mov    0x8(%eax),%eax
  10055b:	3b 45 18             	cmp    0x18(%ebp),%eax
  10055e:	76 16                	jbe    100576 <stab_binsearch+0xe2>
            *region_right = m - 1;
  100560:	8b 45 f0             	mov    -0x10(%ebp),%eax
  100563:	8d 50 ff             	lea    -0x1(%eax),%edx
  100566:	8b 45 10             	mov    0x10(%ebp),%eax
  100569:	89 10                	mov    %edx,(%eax)
            r = m - 1;
  10056b:	8b 45 f0             	mov    -0x10(%ebp),%eax
  10056e:	83 e8 01             	sub    $0x1,%eax
  100571:	89 45 f8             	mov    %eax,-0x8(%ebp)
  100574:	eb 12                	jmp    100588 <stab_binsearch+0xf4>
        } else {
            // exact match for 'addr', but continue loop to find
            // *region_right
            *region_left = m;
  100576:	8b 45 0c             	mov    0xc(%ebp),%eax
  100579:	8b 55 f0             	mov    -0x10(%ebp),%edx
  10057c:	89 10                	mov    %edx,(%eax)
            l = m;
  10057e:	8b 45 f0             	mov    -0x10(%ebp),%eax
  100581:	89 45 fc             	mov    %eax,-0x4(%ebp)
            addr ++;
  100584:	83 45 18 01          	addl   $0x1,0x18(%ebp)
static void
stab_binsearch(const struct stab *stabs, int *region_left, int *region_right,
           int type, uintptr_t addr) {
    int l = *region_left, r = *region_right, any_matches = 0;

    while (l <= r) {
  100588:	8b 45 fc             	mov    -0x4(%ebp),%eax
  10058b:	3b 45 f8             	cmp    -0x8(%ebp),%eax
  10058e:	0f 8e 22 ff ff ff    	jle    1004b6 <stab_binsearch+0x22>
            l = m;
            addr ++;
        }
    }

    if (!any_matches) {
  100594:	83 7d f4 00          	cmpl   $0x0,-0xc(%ebp)
  100598:	75 0f                	jne    1005a9 <stab_binsearch+0x115>
        *region_right = *region_left - 1;
  10059a:	8b 45 0c             	mov    0xc(%ebp),%eax
  10059d:	8b 00                	mov    (%eax),%eax
  10059f:	8d 50 ff             	lea    -0x1(%eax),%edx
  1005a2:	8b 45 10             	mov    0x10(%ebp),%eax
  1005a5:	89 10                	mov    %edx,(%eax)
        l = *region_right;
        for (; l > *region_left && stabs[l].n_type != type; l --)
            /* do nothing */;
        *region_left = l;
    }
}
  1005a7:	eb 3f                	jmp    1005e8 <stab_binsearch+0x154>
    if (!any_matches) {
        *region_right = *region_left - 1;
    }
    else {
        // find rightmost region containing 'addr'
        l = *region_right;
  1005a9:	8b 45 10             	mov    0x10(%ebp),%eax
  1005ac:	8b 00                	mov    (%eax),%eax
  1005ae:	89 45 fc             	mov    %eax,-0x4(%ebp)
        for (; l > *region_left && stabs[l].n_type != type; l --)
  1005b1:	eb 04                	jmp    1005b7 <stab_binsearch+0x123>
  1005b3:	83 6d fc 01          	subl   $0x1,-0x4(%ebp)
  1005b7:	8b 45 0c             	mov    0xc(%ebp),%eax
  1005ba:	8b 00                	mov    (%eax),%eax
  1005bc:	3b 45 fc             	cmp    -0x4(%ebp),%eax
  1005bf:	7d 1f                	jge    1005e0 <stab_binsearch+0x14c>
  1005c1:	8b 55 fc             	mov    -0x4(%ebp),%edx
  1005c4:	89 d0                	mov    %edx,%eax
  1005c6:	01 c0                	add    %eax,%eax
  1005c8:	01 d0                	add    %edx,%eax
  1005ca:	c1 e0 02             	shl    $0x2,%eax
  1005cd:	89 c2                	mov    %eax,%edx
  1005cf:	8b 45 08             	mov    0x8(%ebp),%eax
  1005d2:	01 d0                	add    %edx,%eax
  1005d4:	0f b6 40 04          	movzbl 0x4(%eax),%eax
  1005d8:	0f b6 c0             	movzbl %al,%eax
  1005db:	3b 45 14             	cmp    0x14(%ebp),%eax
  1005de:	75 d3                	jne    1005b3 <stab_binsearch+0x11f>
            /* do nothing */;
        *region_left = l;
  1005e0:	8b 45 0c             	mov    0xc(%ebp),%eax
  1005e3:	8b 55 fc             	mov    -0x4(%ebp),%edx
  1005e6:	89 10                	mov    %edx,(%eax)
    }
}
  1005e8:	90                   	nop
  1005e9:	c9                   	leave  
  1005ea:	c3                   	ret    

001005eb <debuginfo_eip>:
 * the specified instruction address, @addr.  Returns 0 if information
 * was found, and negative if not.  But even if it returns negative it
 * has stored some information into '*info'.
 * */
int
debuginfo_eip(uintptr_t addr, struct eipdebuginfo *info) {
  1005eb:	55                   	push   %ebp
  1005ec:	89 e5                	mov    %esp,%ebp
  1005ee:	83 ec 38             	sub    $0x38,%esp
    const struct stab *stabs, *stab_end;
    const char *stabstr, *stabstr_end;

    info->eip_file = "<unknown>";
  1005f1:	8b 45 0c             	mov    0xc(%ebp),%eax
  1005f4:	c7 00 08 5d 10 00    	movl   $0x105d08,(%eax)
    info->eip_line = 0;
  1005fa:	8b 45 0c             	mov    0xc(%ebp),%eax
  1005fd:	c7 40 04 00 00 00 00 	movl   $0x0,0x4(%eax)
    info->eip_fn_name = "<unknown>";
  100604:	8b 45 0c             	mov    0xc(%ebp),%eax
  100607:	c7 40 08 08 5d 10 00 	movl   $0x105d08,0x8(%eax)
    info->eip_fn_namelen = 9;
  10060e:	8b 45 0c             	mov    0xc(%ebp),%eax
  100611:	c7 40 0c 09 00 00 00 	movl   $0x9,0xc(%eax)
    info->eip_fn_addr = addr;
  100618:	8b 45 0c             	mov    0xc(%ebp),%eax
  10061b:	8b 55 08             	mov    0x8(%ebp),%edx
  10061e:	89 50 10             	mov    %edx,0x10(%eax)
    info->eip_fn_narg = 0;
  100621:	8b 45 0c             	mov    0xc(%ebp),%eax
  100624:	c7 40 14 00 00 00 00 	movl   $0x0,0x14(%eax)

    stabs = __STAB_BEGIN__;
  10062b:	c7 45 f4 28 6f 10 00 	movl   $0x106f28,-0xc(%ebp)
    stab_end = __STAB_END__;
  100632:	c7 45 f0 1c 20 11 00 	movl   $0x11201c,-0x10(%ebp)
    stabstr = __STABSTR_BEGIN__;
  100639:	c7 45 ec 1d 20 11 00 	movl   $0x11201d,-0x14(%ebp)
    stabstr_end = __STABSTR_END__;
  100640:	c7 45 e8 4f 4b 11 00 	movl   $0x114b4f,-0x18(%ebp)

    // String table validity checks
    if (stabstr_end <= stabstr || stabstr_end[-1] != 0) {
  100647:	8b 45 e8             	mov    -0x18(%ebp),%eax
  10064a:	3b 45 ec             	cmp    -0x14(%ebp),%eax
  10064d:	76 0d                	jbe    10065c <debuginfo_eip+0x71>
  10064f:	8b 45 e8             	mov    -0x18(%ebp),%eax
  100652:	83 e8 01             	sub    $0x1,%eax
  100655:	0f b6 00             	movzbl (%eax),%eax
  100658:	84 c0                	test   %al,%al
  10065a:	74 0a                	je     100666 <debuginfo_eip+0x7b>
        return -1;
  10065c:	b8 ff ff ff ff       	mov    $0xffffffff,%eax
  100661:	e9 91 02 00 00       	jmp    1008f7 <debuginfo_eip+0x30c>
    // 'eip'.  First, we find the basic source file containing 'eip'.
    // Then, we look in that source file for the function.  Then we look
    // for the line number.

    // Search the entire set of stabs for the source file (type N_SO).
    int lfile = 0, rfile = (stab_end - stabs) - 1;
  100666:	c7 45 e4 00 00 00 00 	movl   $0x0,-0x1c(%ebp)
  10066d:	8b 55 f0             	mov    -0x10(%ebp),%edx
  100670:	8b 45 f4             	mov    -0xc(%ebp),%eax
  100673:	29 c2                	sub    %eax,%edx
  100675:	89 d0                	mov    %edx,%eax
  100677:	c1 f8 02             	sar    $0x2,%eax
  10067a:	69 c0 ab aa aa aa    	imul   $0xaaaaaaab,%eax,%eax
  100680:	83 e8 01             	sub    $0x1,%eax
  100683:	89 45 e0             	mov    %eax,-0x20(%ebp)
    stab_binsearch(stabs, &lfile, &rfile, N_SO, addr);
  100686:	ff 75 08             	pushl  0x8(%ebp)
  100689:	6a 64                	push   $0x64
  10068b:	8d 45 e0             	lea    -0x20(%ebp),%eax
  10068e:	50                   	push   %eax
  10068f:	8d 45 e4             	lea    -0x1c(%ebp),%eax
  100692:	50                   	push   %eax
  100693:	ff 75 f4             	pushl  -0xc(%ebp)
  100696:	e8 f9 fd ff ff       	call   100494 <stab_binsearch>
  10069b:	83 c4 14             	add    $0x14,%esp
    if (lfile == 0)
  10069e:	8b 45 e4             	mov    -0x1c(%ebp),%eax
  1006a1:	85 c0                	test   %eax,%eax
  1006a3:	75 0a                	jne    1006af <debuginfo_eip+0xc4>
        return -1;
  1006a5:	b8 ff ff ff ff       	mov    $0xffffffff,%eax
  1006aa:	e9 48 02 00 00       	jmp    1008f7 <debuginfo_eip+0x30c>

    // Search within that file's stabs for the function definition
    // (N_FUN).
    int lfun = lfile, rfun = rfile;
  1006af:	8b 45 e4             	mov    -0x1c(%ebp),%eax
  1006b2:	89 45 dc             	mov    %eax,-0x24(%ebp)
  1006b5:	8b 45 e0             	mov    -0x20(%ebp),%eax
  1006b8:	89 45 d8             	mov    %eax,-0x28(%ebp)
    int lline, rline;
    stab_binsearch(stabs, &lfun, &rfun, N_FUN, addr);
  1006bb:	ff 75 08             	pushl  0x8(%ebp)
  1006be:	6a 24                	push   $0x24
  1006c0:	8d 45 d8             	lea    -0x28(%ebp),%eax
  1006c3:	50                   	push   %eax
  1006c4:	8d 45 dc             	lea    -0x24(%ebp),%eax
  1006c7:	50                   	push   %eax
  1006c8:	ff 75 f4             	pushl  -0xc(%ebp)
  1006cb:	e8 c4 fd ff ff       	call   100494 <stab_binsearch>
  1006d0:	83 c4 14             	add    $0x14,%esp

    if (lfun <= rfun) {
  1006d3:	8b 55 dc             	mov    -0x24(%ebp),%edx
  1006d6:	8b 45 d8             	mov    -0x28(%ebp),%eax
  1006d9:	39 c2                	cmp    %eax,%edx
  1006db:	7f 7c                	jg     100759 <debuginfo_eip+0x16e>
        // stabs[lfun] points to the function name
        // in the string table, but check bounds just in case.
        if (stabs[lfun].n_strx < stabstr_end - stabstr) {
  1006dd:	8b 45 dc             	mov    -0x24(%ebp),%eax
  1006e0:	89 c2                	mov    %eax,%edx
  1006e2:	89 d0                	mov    %edx,%eax
  1006e4:	01 c0                	add    %eax,%eax
  1006e6:	01 d0                	add    %edx,%eax
  1006e8:	c1 e0 02             	shl    $0x2,%eax
  1006eb:	89 c2                	mov    %eax,%edx
  1006ed:	8b 45 f4             	mov    -0xc(%ebp),%eax
  1006f0:	01 d0                	add    %edx,%eax
  1006f2:	8b 00                	mov    (%eax),%eax
  1006f4:	8b 4d e8             	mov    -0x18(%ebp),%ecx
  1006f7:	8b 55 ec             	mov    -0x14(%ebp),%edx
  1006fa:	29 d1                	sub    %edx,%ecx
  1006fc:	89 ca                	mov    %ecx,%edx
  1006fe:	39 d0                	cmp    %edx,%eax
  100700:	73 22                	jae    100724 <debuginfo_eip+0x139>
            info->eip_fn_name = stabstr + stabs[lfun].n_strx;
  100702:	8b 45 dc             	mov    -0x24(%ebp),%eax
  100705:	89 c2                	mov    %eax,%edx
  100707:	89 d0                	mov    %edx,%eax
  100709:	01 c0                	add    %eax,%eax
  10070b:	01 d0                	add    %edx,%eax
  10070d:	c1 e0 02             	shl    $0x2,%eax
  100710:	89 c2                	mov    %eax,%edx
  100712:	8b 45 f4             	mov    -0xc(%ebp),%eax
  100715:	01 d0                	add    %edx,%eax
  100717:	8b 10                	mov    (%eax),%edx
  100719:	8b 45 ec             	mov    -0x14(%ebp),%eax
  10071c:	01 c2                	add    %eax,%edx
  10071e:	8b 45 0c             	mov    0xc(%ebp),%eax
  100721:	89 50 08             	mov    %edx,0x8(%eax)
        }
        info->eip_fn_addr = stabs[lfun].n_value;
  100724:	8b 45 dc             	mov    -0x24(%ebp),%eax
  100727:	89 c2                	mov    %eax,%edx
  100729:	89 d0                	mov    %edx,%eax
  10072b:	01 c0                	add    %eax,%eax
  10072d:	01 d0                	add    %edx,%eax
  10072f:	c1 e0 02             	shl    $0x2,%eax
  100732:	89 c2                	mov    %eax,%edx
  100734:	8b 45 f4             	mov    -0xc(%ebp),%eax
  100737:	01 d0                	add    %edx,%eax
  100739:	8b 50 08             	mov    0x8(%eax),%edx
  10073c:	8b 45 0c             	mov    0xc(%ebp),%eax
  10073f:	89 50 10             	mov    %edx,0x10(%eax)
        addr -= info->eip_fn_addr;
  100742:	8b 45 0c             	mov    0xc(%ebp),%eax
  100745:	8b 40 10             	mov    0x10(%eax),%eax
  100748:	29 45 08             	sub    %eax,0x8(%ebp)
        // Search within the function definition for the line number.
        lline = lfun;
  10074b:	8b 45 dc             	mov    -0x24(%ebp),%eax
  10074e:	89 45 d4             	mov    %eax,-0x2c(%ebp)
        rline = rfun;
  100751:	8b 45 d8             	mov    -0x28(%ebp),%eax
  100754:	89 45 d0             	mov    %eax,-0x30(%ebp)
  100757:	eb 15                	jmp    10076e <debuginfo_eip+0x183>
    } else {
        // Couldn't find function stab!  Maybe we're in an assembly
        // file.  Search the whole file for the line number.
        info->eip_fn_addr = addr;
  100759:	8b 45 0c             	mov    0xc(%ebp),%eax
  10075c:	8b 55 08             	mov    0x8(%ebp),%edx
  10075f:	89 50 10             	mov    %edx,0x10(%eax)
        lline = lfile;
  100762:	8b 45 e4             	mov    -0x1c(%ebp),%eax
  100765:	89 45 d4             	mov    %eax,-0x2c(%ebp)
        rline = rfile;
  100768:	8b 45 e0             	mov    -0x20(%ebp),%eax
  10076b:	89 45 d0             	mov    %eax,-0x30(%ebp)
    }
    info->eip_fn_namelen = strfind(info->eip_fn_name, ':') - info->eip_fn_name;
  10076e:	8b 45 0c             	mov    0xc(%ebp),%eax
  100771:	8b 40 08             	mov    0x8(%eax),%eax
  100774:	83 ec 08             	sub    $0x8,%esp
  100777:	6a 3a                	push   $0x3a
  100779:	50                   	push   %eax
  10077a:	e8 6d 4b 00 00       	call   1052ec <strfind>
  10077f:	83 c4 10             	add    $0x10,%esp
  100782:	89 c2                	mov    %eax,%edx
  100784:	8b 45 0c             	mov    0xc(%ebp),%eax
  100787:	8b 40 08             	mov    0x8(%eax),%eax
  10078a:	29 c2                	sub    %eax,%edx
  10078c:	8b 45 0c             	mov    0xc(%ebp),%eax
  10078f:	89 50 0c             	mov    %edx,0xc(%eax)

    // Search within [lline, rline] for the line number stab.
    // If found, set info->eip_line to the right line number.
    // If not found, return -1.
    stab_binsearch(stabs, &lline, &rline, N_SLINE, addr);
  100792:	83 ec 0c             	sub    $0xc,%esp
  100795:	ff 75 08             	pushl  0x8(%ebp)
  100798:	6a 44                	push   $0x44
  10079a:	8d 45 d0             	lea    -0x30(%ebp),%eax
  10079d:	50                   	push   %eax
  10079e:	8d 45 d4             	lea    -0x2c(%ebp),%eax
  1007a1:	50                   	push   %eax
  1007a2:	ff 75 f4             	pushl  -0xc(%ebp)
  1007a5:	e8 ea fc ff ff       	call   100494 <stab_binsearch>
  1007aa:	83 c4 20             	add    $0x20,%esp
    if (lline <= rline) {
  1007ad:	8b 55 d4             	mov    -0x2c(%ebp),%edx
  1007b0:	8b 45 d0             	mov    -0x30(%ebp),%eax
  1007b3:	39 c2                	cmp    %eax,%edx
  1007b5:	7f 24                	jg     1007db <debuginfo_eip+0x1f0>
        info->eip_line = stabs[rline].n_desc;
  1007b7:	8b 45 d0             	mov    -0x30(%ebp),%eax
  1007ba:	89 c2                	mov    %eax,%edx
  1007bc:	89 d0                	mov    %edx,%eax
  1007be:	01 c0                	add    %eax,%eax
  1007c0:	01 d0                	add    %edx,%eax
  1007c2:	c1 e0 02             	shl    $0x2,%eax
  1007c5:	89 c2                	mov    %eax,%edx
  1007c7:	8b 45 f4             	mov    -0xc(%ebp),%eax
  1007ca:	01 d0                	add    %edx,%eax
  1007cc:	0f b7 40 06          	movzwl 0x6(%eax),%eax
  1007d0:	0f b7 d0             	movzwl %ax,%edx
  1007d3:	8b 45 0c             	mov    0xc(%ebp),%eax
  1007d6:	89 50 04             	mov    %edx,0x4(%eax)

    // Search backwards from the line number for the relevant filename stab.
    // We can't just use the "lfile" stab because inlined functions
    // can interpolate code from a different file!
    // Such included source files use the N_SOL stab type.
    while (lline >= lfile
  1007d9:	eb 13                	jmp    1007ee <debuginfo_eip+0x203>
    // If not found, return -1.
    stab_binsearch(stabs, &lline, &rline, N_SLINE, addr);
    if (lline <= rline) {
        info->eip_line = stabs[rline].n_desc;
    } else {
        return -1;
  1007db:	b8 ff ff ff ff       	mov    $0xffffffff,%eax
  1007e0:	e9 12 01 00 00       	jmp    1008f7 <debuginfo_eip+0x30c>
    // can interpolate code from a different file!
    // Such included source files use the N_SOL stab type.
    while (lline >= lfile
           && stabs[lline].n_type != N_SOL
           && (stabs[lline].n_type != N_SO || !stabs[lline].n_value)) {
        lline --;
  1007e5:	8b 45 d4             	mov    -0x2c(%ebp),%eax
  1007e8:	83 e8 01             	sub    $0x1,%eax
  1007eb:	89 45 d4             	mov    %eax,-0x2c(%ebp)

    // Search backwards from the line number for the relevant filename stab.
    // We can't just use the "lfile" stab because inlined functions
    // can interpolate code from a different file!
    // Such included source files use the N_SOL stab type.
    while (lline >= lfile
  1007ee:	8b 55 d4             	mov    -0x2c(%ebp),%edx
  1007f1:	8b 45 e4             	mov    -0x1c(%ebp),%eax
  1007f4:	39 c2                	cmp    %eax,%edx
  1007f6:	7c 56                	jl     10084e <debuginfo_eip+0x263>
           && stabs[lline].n_type != N_SOL
  1007f8:	8b 45 d4             	mov    -0x2c(%ebp),%eax
  1007fb:	89 c2                	mov    %eax,%edx
  1007fd:	89 d0                	mov    %edx,%eax
  1007ff:	01 c0                	add    %eax,%eax
  100801:	01 d0                	add    %edx,%eax
  100803:	c1 e0 02             	shl    $0x2,%eax
  100806:	89 c2                	mov    %eax,%edx
  100808:	8b 45 f4             	mov    -0xc(%ebp),%eax
  10080b:	01 d0                	add    %edx,%eax
  10080d:	0f b6 40 04          	movzbl 0x4(%eax),%eax
  100811:	3c 84                	cmp    $0x84,%al
  100813:	74 39                	je     10084e <debuginfo_eip+0x263>
           && (stabs[lline].n_type != N_SO || !stabs[lline].n_value)) {
  100815:	8b 45 d4             	mov    -0x2c(%ebp),%eax
  100818:	89 c2                	mov    %eax,%edx
  10081a:	89 d0                	mov    %edx,%eax
  10081c:	01 c0                	add    %eax,%eax
  10081e:	01 d0                	add    %edx,%eax
  100820:	c1 e0 02             	shl    $0x2,%eax
  100823:	89 c2                	mov    %eax,%edx
  100825:	8b 45 f4             	mov    -0xc(%ebp),%eax
  100828:	01 d0                	add    %edx,%eax
  10082a:	0f b6 40 04          	movzbl 0x4(%eax),%eax
  10082e:	3c 64                	cmp    $0x64,%al
  100830:	75 b3                	jne    1007e5 <debuginfo_eip+0x1fa>
  100832:	8b 45 d4             	mov    -0x2c(%ebp),%eax
  100835:	89 c2                	mov    %eax,%edx
  100837:	89 d0                	mov    %edx,%eax
  100839:	01 c0                	add    %eax,%eax
  10083b:	01 d0                	add    %edx,%eax
  10083d:	c1 e0 02             	shl    $0x2,%eax
  100840:	89 c2                	mov    %eax,%edx
  100842:	8b 45 f4             	mov    -0xc(%ebp),%eax
  100845:	01 d0                	add    %edx,%eax
  100847:	8b 40 08             	mov    0x8(%eax),%eax
  10084a:	85 c0                	test   %eax,%eax
  10084c:	74 97                	je     1007e5 <debuginfo_eip+0x1fa>
        lline --;
    }
    if (lline >= lfile && stabs[lline].n_strx < stabstr_end - stabstr) {
  10084e:	8b 55 d4             	mov    -0x2c(%ebp),%edx
  100851:	8b 45 e4             	mov    -0x1c(%ebp),%eax
  100854:	39 c2                	cmp    %eax,%edx
  100856:	7c 46                	jl     10089e <debuginfo_eip+0x2b3>
  100858:	8b 45 d4             	mov    -0x2c(%ebp),%eax
  10085b:	89 c2                	mov    %eax,%edx
  10085d:	89 d0                	mov    %edx,%eax
  10085f:	01 c0                	add    %eax,%eax
  100861:	01 d0                	add    %edx,%eax
  100863:	c1 e0 02             	shl    $0x2,%eax
  100866:	89 c2                	mov    %eax,%edx
  100868:	8b 45 f4             	mov    -0xc(%ebp),%eax
  10086b:	01 d0                	add    %edx,%eax
  10086d:	8b 00                	mov    (%eax),%eax
  10086f:	8b 4d e8             	mov    -0x18(%ebp),%ecx
  100872:	8b 55 ec             	mov    -0x14(%ebp),%edx
  100875:	29 d1                	sub    %edx,%ecx
  100877:	89 ca                	mov    %ecx,%edx
  100879:	39 d0                	cmp    %edx,%eax
  10087b:	73 21                	jae    10089e <debuginfo_eip+0x2b3>
        info->eip_file = stabstr + stabs[lline].n_strx;
  10087d:	8b 45 d4             	mov    -0x2c(%ebp),%eax
  100880:	89 c2                	mov    %eax,%edx
  100882:	89 d0                	mov    %edx,%eax
  100884:	01 c0                	add    %eax,%eax
  100886:	01 d0                	add    %edx,%eax
  100888:	c1 e0 02             	shl    $0x2,%eax
  10088b:	89 c2                	mov    %eax,%edx
  10088d:	8b 45 f4             	mov    -0xc(%ebp),%eax
  100890:	01 d0                	add    %edx,%eax
  100892:	8b 10                	mov    (%eax),%edx
  100894:	8b 45 ec             	mov    -0x14(%ebp),%eax
  100897:	01 c2                	add    %eax,%edx
  100899:	8b 45 0c             	mov    0xc(%ebp),%eax
  10089c:	89 10                	mov    %edx,(%eax)
    }

    // Set eip_fn_narg to the number of arguments taken by the function,
    // or 0 if there was no containing function.
    if (lfun < rfun) {
  10089e:	8b 55 dc             	mov    -0x24(%ebp),%edx
  1008a1:	8b 45 d8             	mov    -0x28(%ebp),%eax
  1008a4:	39 c2                	cmp    %eax,%edx
  1008a6:	7d 4a                	jge    1008f2 <debuginfo_eip+0x307>
        for (lline = lfun + 1;
  1008a8:	8b 45 dc             	mov    -0x24(%ebp),%eax
  1008ab:	83 c0 01             	add    $0x1,%eax
  1008ae:	89 45 d4             	mov    %eax,-0x2c(%ebp)
  1008b1:	eb 18                	jmp    1008cb <debuginfo_eip+0x2e0>
             lline < rfun && stabs[lline].n_type == N_PSYM;
             lline ++) {
            info->eip_fn_narg ++;
  1008b3:	8b 45 0c             	mov    0xc(%ebp),%eax
  1008b6:	8b 40 14             	mov    0x14(%eax),%eax
  1008b9:	8d 50 01             	lea    0x1(%eax),%edx
  1008bc:	8b 45 0c             	mov    0xc(%ebp),%eax
  1008bf:	89 50 14             	mov    %edx,0x14(%eax)
    // Set eip_fn_narg to the number of arguments taken by the function,
    // or 0 if there was no containing function.
    if (lfun < rfun) {
        for (lline = lfun + 1;
             lline < rfun && stabs[lline].n_type == N_PSYM;
             lline ++) {
  1008c2:	8b 45 d4             	mov    -0x2c(%ebp),%eax
  1008c5:	83 c0 01             	add    $0x1,%eax
  1008c8:	89 45 d4             	mov    %eax,-0x2c(%ebp)

    // Set eip_fn_narg to the number of arguments taken by the function,
    // or 0 if there was no containing function.
    if (lfun < rfun) {
        for (lline = lfun + 1;
             lline < rfun && stabs[lline].n_type == N_PSYM;
  1008cb:	8b 55 d4             	mov    -0x2c(%ebp),%edx
  1008ce:	8b 45 d8             	mov    -0x28(%ebp),%eax
    }

    // Set eip_fn_narg to the number of arguments taken by the function,
    // or 0 if there was no containing function.
    if (lfun < rfun) {
        for (lline = lfun + 1;
  1008d1:	39 c2                	cmp    %eax,%edx
  1008d3:	7d 1d                	jge    1008f2 <debuginfo_eip+0x307>
             lline < rfun && stabs[lline].n_type == N_PSYM;
  1008d5:	8b 45 d4             	mov    -0x2c(%ebp),%eax
  1008d8:	89 c2                	mov    %eax,%edx
  1008da:	89 d0                	mov    %edx,%eax
  1008dc:	01 c0                	add    %eax,%eax
  1008de:	01 d0                	add    %edx,%eax
  1008e0:	c1 e0 02             	shl    $0x2,%eax
  1008e3:	89 c2                	mov    %eax,%edx
  1008e5:	8b 45 f4             	mov    -0xc(%ebp),%eax
  1008e8:	01 d0                	add    %edx,%eax
  1008ea:	0f b6 40 04          	movzbl 0x4(%eax),%eax
  1008ee:	3c a0                	cmp    $0xa0,%al
  1008f0:	74 c1                	je     1008b3 <debuginfo_eip+0x2c8>
             lline ++) {
            info->eip_fn_narg ++;
        }
    }
    return 0;
  1008f2:	b8 00 00 00 00       	mov    $0x0,%eax
}
  1008f7:	c9                   	leave  
  1008f8:	c3                   	ret    

001008f9 <print_kerninfo>:
 * print_kerninfo - print the information about kernel, including the location
 * of kernel entry, the start addresses of data and text segements, the start
 * address of free memory and how many memory that kernel has used.
 * */
void
print_kerninfo(void) {
  1008f9:	55                   	push   %ebp
  1008fa:	89 e5                	mov    %esp,%ebp
  1008fc:	83 ec 08             	sub    $0x8,%esp
    extern char etext[], edata[], end[], kern_init[];
    cprintf("Special kernel symbols:\n");
  1008ff:	83 ec 0c             	sub    $0xc,%esp
  100902:	68 12 5d 10 00       	push   $0x105d12
  100907:	e8 63 f9 ff ff       	call   10026f <cprintf>
  10090c:	83 c4 10             	add    $0x10,%esp
    cprintf("  entry  0x%08x (phys)\n", kern_init);
  10090f:	83 ec 08             	sub    $0x8,%esp
  100912:	68 2a 00 10 00       	push   $0x10002a
  100917:	68 2b 5d 10 00       	push   $0x105d2b
  10091c:	e8 4e f9 ff ff       	call   10026f <cprintf>
  100921:	83 c4 10             	add    $0x10,%esp
    cprintf("  etext  0x%08x (phys)\n", etext);
  100924:	83 ec 08             	sub    $0x8,%esp
  100927:	68 0f 5c 10 00       	push   $0x105c0f
  10092c:	68 43 5d 10 00       	push   $0x105d43
  100931:	e8 39 f9 ff ff       	call   10026f <cprintf>
  100936:	83 c4 10             	add    $0x10,%esp
    cprintf("  edata  0x%08x (phys)\n", edata);
  100939:	83 ec 08             	sub    $0x8,%esp
  10093c:	68 36 7a 11 00       	push   $0x117a36
  100941:	68 5b 5d 10 00       	push   $0x105d5b
  100946:	e8 24 f9 ff ff       	call   10026f <cprintf>
  10094b:	83 c4 10             	add    $0x10,%esp
    cprintf("  end    0x%08x (phys)\n", end);
  10094e:	83 ec 08             	sub    $0x8,%esp
  100951:	68 c8 89 11 00       	push   $0x1189c8
  100956:	68 73 5d 10 00       	push   $0x105d73
  10095b:	e8 0f f9 ff ff       	call   10026f <cprintf>
  100960:	83 c4 10             	add    $0x10,%esp
    cprintf("Kernel executable memory footprint: %dKB\n", (end - kern_init + 1023)/1024);
  100963:	b8 c8 89 11 00       	mov    $0x1189c8,%eax
  100968:	05 ff 03 00 00       	add    $0x3ff,%eax
  10096d:	ba 2a 00 10 00       	mov    $0x10002a,%edx
  100972:	29 d0                	sub    %edx,%eax
  100974:	8d 90 ff 03 00 00    	lea    0x3ff(%eax),%edx
  10097a:	85 c0                	test   %eax,%eax
  10097c:	0f 48 c2             	cmovs  %edx,%eax
  10097f:	c1 f8 0a             	sar    $0xa,%eax
  100982:	83 ec 08             	sub    $0x8,%esp
  100985:	50                   	push   %eax
  100986:	68 8c 5d 10 00       	push   $0x105d8c
  10098b:	e8 df f8 ff ff       	call   10026f <cprintf>
  100990:	83 c4 10             	add    $0x10,%esp
}
  100993:	90                   	nop
  100994:	c9                   	leave  
  100995:	c3                   	ret    

00100996 <print_debuginfo>:
/* *
 * print_debuginfo - read and print the stat information for the address @eip,
 * and info.eip_fn_addr should be the first address of the related function.
 * */
void
print_debuginfo(uintptr_t eip) {
  100996:	55                   	push   %ebp
  100997:	89 e5                	mov    %esp,%ebp
  100999:	81 ec 28 01 00 00    	sub    $0x128,%esp
    struct eipdebuginfo info;
    if (debuginfo_eip(eip, &info) != 0) {
  10099f:	83 ec 08             	sub    $0x8,%esp
  1009a2:	8d 45 dc             	lea    -0x24(%ebp),%eax
  1009a5:	50                   	push   %eax
  1009a6:	ff 75 08             	pushl  0x8(%ebp)
  1009a9:	e8 3d fc ff ff       	call   1005eb <debuginfo_eip>
  1009ae:	83 c4 10             	add    $0x10,%esp
  1009b1:	85 c0                	test   %eax,%eax
  1009b3:	74 15                	je     1009ca <print_debuginfo+0x34>
        cprintf("    <unknow>: -- 0x%08x --\n", eip);
  1009b5:	83 ec 08             	sub    $0x8,%esp
  1009b8:	ff 75 08             	pushl  0x8(%ebp)
  1009bb:	68 b6 5d 10 00       	push   $0x105db6
  1009c0:	e8 aa f8 ff ff       	call   10026f <cprintf>
  1009c5:	83 c4 10             	add    $0x10,%esp
        }
        fnname[j] = '\0';
        cprintf("    %s:%d: %s+%d\n", info.eip_file, info.eip_line,
                fnname, eip - info.eip_fn_addr);
    }
}
  1009c8:	eb 65                	jmp    100a2f <print_debuginfo+0x99>
        cprintf("    <unknow>: -- 0x%08x --\n", eip);
    }
    else {
        char fnname[256];
        int j;
        for (j = 0; j < info.eip_fn_namelen; j ++) {
  1009ca:	c7 45 f4 00 00 00 00 	movl   $0x0,-0xc(%ebp)
  1009d1:	eb 1c                	jmp    1009ef <print_debuginfo+0x59>
            fnname[j] = info.eip_fn_name[j];
  1009d3:	8b 55 e4             	mov    -0x1c(%ebp),%edx
  1009d6:	8b 45 f4             	mov    -0xc(%ebp),%eax
  1009d9:	01 d0                	add    %edx,%eax
  1009db:	0f b6 00             	movzbl (%eax),%eax
  1009de:	8d 8d dc fe ff ff    	lea    -0x124(%ebp),%ecx
  1009e4:	8b 55 f4             	mov    -0xc(%ebp),%edx
  1009e7:	01 ca                	add    %ecx,%edx
  1009e9:	88 02                	mov    %al,(%edx)
        cprintf("    <unknow>: -- 0x%08x --\n", eip);
    }
    else {
        char fnname[256];
        int j;
        for (j = 0; j < info.eip_fn_namelen; j ++) {
  1009eb:	83 45 f4 01          	addl   $0x1,-0xc(%ebp)
  1009ef:	8b 45 e8             	mov    -0x18(%ebp),%eax
  1009f2:	3b 45 f4             	cmp    -0xc(%ebp),%eax
  1009f5:	7f dc                	jg     1009d3 <print_debuginfo+0x3d>
            fnname[j] = info.eip_fn_name[j];
        }
        fnname[j] = '\0';
  1009f7:	8d 95 dc fe ff ff    	lea    -0x124(%ebp),%edx
  1009fd:	8b 45 f4             	mov    -0xc(%ebp),%eax
  100a00:	01 d0                	add    %edx,%eax
  100a02:	c6 00 00             	movb   $0x0,(%eax)
        cprintf("    %s:%d: %s+%d\n", info.eip_file, info.eip_line,
                fnname, eip - info.eip_fn_addr);
  100a05:	8b 45 ec             	mov    -0x14(%ebp),%eax
        int j;
        for (j = 0; j < info.eip_fn_namelen; j ++) {
            fnname[j] = info.eip_fn_name[j];
        }
        fnname[j] = '\0';
        cprintf("    %s:%d: %s+%d\n", info.eip_file, info.eip_line,
  100a08:	8b 55 08             	mov    0x8(%ebp),%edx
  100a0b:	89 d1                	mov    %edx,%ecx
  100a0d:	29 c1                	sub    %eax,%ecx
  100a0f:	8b 55 e0             	mov    -0x20(%ebp),%edx
  100a12:	8b 45 dc             	mov    -0x24(%ebp),%eax
  100a15:	83 ec 0c             	sub    $0xc,%esp
  100a18:	51                   	push   %ecx
  100a19:	8d 8d dc fe ff ff    	lea    -0x124(%ebp),%ecx
  100a1f:	51                   	push   %ecx
  100a20:	52                   	push   %edx
  100a21:	50                   	push   %eax
  100a22:	68 d2 5d 10 00       	push   $0x105dd2
  100a27:	e8 43 f8 ff ff       	call   10026f <cprintf>
  100a2c:	83 c4 20             	add    $0x20,%esp
                fnname, eip - info.eip_fn_addr);
    }
}
  100a2f:	90                   	nop
  100a30:	c9                   	leave  
  100a31:	c3                   	ret    

00100a32 <read_eip>:

static __noinline uint32_t
read_eip(void) {
  100a32:	55                   	push   %ebp
  100a33:	89 e5                	mov    %esp,%ebp
  100a35:	83 ec 10             	sub    $0x10,%esp
    uint32_t eip;
    asm volatile("movl 4(%%ebp), %0" : "=r" (eip));
  100a38:	8b 45 04             	mov    0x4(%ebp),%eax
  100a3b:	89 45 fc             	mov    %eax,-0x4(%ebp)
    return eip;
  100a3e:	8b 45 fc             	mov    -0x4(%ebp),%eax
}
  100a41:	c9                   	leave  
  100a42:	c3                   	ret    

00100a43 <print_stackframe>:
 *
 * Note that, the length of ebp-chain is limited. In boot/bootasm.S, before jumping
 * to the kernel entry, the value of ebp has been set to zero, that's the boundary.
 * */
void
print_stackframe(void) {
  100a43:	55                   	push   %ebp
  100a44:	89 e5                	mov    %esp,%ebp
  100a46:	53                   	push   %ebx
  100a47:	83 ec 34             	sub    $0x34,%esp
}

static inline uint32_t
read_ebp(void) {
    uint32_t ebp;
    asm volatile ("movl %%ebp, %0" : "=r" (ebp));
  100a4a:	89 e8                	mov    %ebp,%eax
  100a4c:	89 45 e4             	mov    %eax,-0x1c(%ebp)
    return ebp;
  100a4f:	8b 45 e4             	mov    -0x1c(%ebp),%eax
      *    (3.5) popup a calling stackframe
      *           NOTICE: the calling funciton's return addr eip  = ss:[ebp+4]
      *                   the calling funciton's ebp = ss:[ebp]
      */
    // 1. read_ebp
    uint32_t stack_val_ebp = read_ebp();
  100a52:	89 45 f4             	mov    %eax,-0xc(%ebp)

    // 2. read_eip
    uint32_t stack_val_eip = read_eip();
  100a55:	e8 d8 ff ff ff       	call   100a32 <read_eip>
  100a5a:	89 45 f0             	mov    %eax,-0x10(%ebp)
    
    // 3. iterate stacks
    uint32_t stack_val_args[4];
    for (int i = 0; i < STACKFRAME_DEPTH; i++) {
  100a5d:	c7 45 ec 00 00 00 00 	movl   $0x0,-0x14(%ebp)
  100a64:	e9 93 00 00 00       	jmp    100afc <print_stackframe+0xb9>
        cprintf("ebp:0x%08x eip:0x%08x ", stack_val_ebp, stack_val_eip);
  100a69:	83 ec 04             	sub    $0x4,%esp
  100a6c:	ff 75 f0             	pushl  -0x10(%ebp)
  100a6f:	ff 75 f4             	pushl  -0xc(%ebp)
  100a72:	68 e4 5d 10 00       	push   $0x105de4
  100a77:	e8 f3 f7 ff ff       	call   10026f <cprintf>
  100a7c:	83 c4 10             	add    $0x10,%esp

        // get args
        for (int j = 0; j < 4; j++) {
  100a7f:	c7 45 e8 00 00 00 00 	movl   $0x0,-0x18(%ebp)
  100a86:	eb 1f                	jmp    100aa7 <print_stackframe+0x64>
            stack_val_args[j] = *(((uint32_t*) stack_val_ebp) + 2 + j);
  100a88:	8b 45 e8             	mov    -0x18(%ebp),%eax
  100a8b:	8d 14 85 00 00 00 00 	lea    0x0(,%eax,4),%edx
  100a92:	8b 45 f4             	mov    -0xc(%ebp),%eax
  100a95:	01 d0                	add    %edx,%eax
  100a97:	83 c0 08             	add    $0x8,%eax
  100a9a:	8b 10                	mov    (%eax),%edx
  100a9c:	8b 45 e8             	mov    -0x18(%ebp),%eax
  100a9f:	89 54 85 d4          	mov    %edx,-0x2c(%ebp,%eax,4)
    uint32_t stack_val_args[4];
    for (int i = 0; i < STACKFRAME_DEPTH; i++) {
        cprintf("ebp:0x%08x eip:0x%08x ", stack_val_ebp, stack_val_eip);

        // get args
        for (int j = 0; j < 4; j++) {
  100aa3:	83 45 e8 01          	addl   $0x1,-0x18(%ebp)
  100aa7:	83 7d e8 03          	cmpl   $0x3,-0x18(%ebp)
  100aab:	7e db                	jle    100a88 <print_stackframe+0x45>
            stack_val_args[j] = *(((uint32_t*) stack_val_ebp) + 2 + j);
        }

        cprintf("args:0x%08x 0x%08x 0x%08x 0x%08x\n", stack_val_args[0], 
  100aad:	8b 5d e0             	mov    -0x20(%ebp),%ebx
  100ab0:	8b 4d dc             	mov    -0x24(%ebp),%ecx
  100ab3:	8b 55 d8             	mov    -0x28(%ebp),%edx
  100ab6:	8b 45 d4             	mov    -0x2c(%ebp),%eax
  100ab9:	83 ec 0c             	sub    $0xc,%esp
  100abc:	53                   	push   %ebx
  100abd:	51                   	push   %ecx
  100abe:	52                   	push   %edx
  100abf:	50                   	push   %eax
  100ac0:	68 fc 5d 10 00       	push   $0x105dfc
  100ac5:	e8 a5 f7 ff ff       	call   10026f <cprintf>
  100aca:	83 c4 20             	add    $0x20,%esp
                stack_val_args[1], stack_val_args[2], stack_val_args[3]);

        // print function info
        print_debuginfo(stack_val_eip - 1);
  100acd:	8b 45 f0             	mov    -0x10(%ebp),%eax
  100ad0:	83 e8 01             	sub    $0x1,%eax
  100ad3:	83 ec 0c             	sub    $0xc,%esp
  100ad6:	50                   	push   %eax
  100ad7:	e8 ba fe ff ff       	call   100996 <print_debuginfo>
  100adc:	83 c4 10             	add    $0x10,%esp

        // pop up stackframe, refresh ebp & eip
        stack_val_eip = *(((uint32_t*) stack_val_ebp) + 1);
  100adf:	8b 45 f4             	mov    -0xc(%ebp),%eax
  100ae2:	83 c0 04             	add    $0x4,%eax
  100ae5:	8b 00                	mov    (%eax),%eax
  100ae7:	89 45 f0             	mov    %eax,-0x10(%ebp)
        stack_val_ebp = *(((uint32_t*) stack_val_ebp));
  100aea:	8b 45 f4             	mov    -0xc(%ebp),%eax
  100aed:	8b 00                	mov    (%eax),%eax
  100aef:	89 45 f4             	mov    %eax,-0xc(%ebp)

        // ebp should be valid
        if (stack_val_ebp <= 0) {
  100af2:	83 7d f4 00          	cmpl   $0x0,-0xc(%ebp)
  100af6:	74 10                	je     100b08 <print_stackframe+0xc5>
    // 2. read_eip
    uint32_t stack_val_eip = read_eip();
    
    // 3. iterate stacks
    uint32_t stack_val_args[4];
    for (int i = 0; i < STACKFRAME_DEPTH; i++) {
  100af8:	83 45 ec 01          	addl   $0x1,-0x14(%ebp)
  100afc:	83 7d ec 13          	cmpl   $0x13,-0x14(%ebp)
  100b00:	0f 8e 63 ff ff ff    	jle    100a69 <print_stackframe+0x26>
        // ebp should be valid
        if (stack_val_ebp <= 0) {
            break;
        }
    }
}
  100b06:	eb 01                	jmp    100b09 <print_stackframe+0xc6>
        stack_val_eip = *(((uint32_t*) stack_val_ebp) + 1);
        stack_val_ebp = *(((uint32_t*) stack_val_ebp));

        // ebp should be valid
        if (stack_val_ebp <= 0) {
            break;
  100b08:	90                   	nop
        }
    }
}
  100b09:	90                   	nop
  100b0a:	8b 5d fc             	mov    -0x4(%ebp),%ebx
  100b0d:	c9                   	leave  
  100b0e:	c3                   	ret    

00100b0f <parse>:
#define MAXARGS         16
#define WHITESPACE      " \t\n\r"

/* parse - parse the command buffer into whitespace-separated arguments */
static int
parse(char *buf, char **argv) {
  100b0f:	55                   	push   %ebp
  100b10:	89 e5                	mov    %esp,%ebp
  100b12:	83 ec 18             	sub    $0x18,%esp
    int argc = 0;
  100b15:	c7 45 f4 00 00 00 00 	movl   $0x0,-0xc(%ebp)
    while (1) {
        // find global whitespace
        while (*buf != '\0' && strchr(WHITESPACE, *buf) != NULL) {
  100b1c:	eb 0c                	jmp    100b2a <parse+0x1b>
            *buf ++ = '\0';
  100b1e:	8b 45 08             	mov    0x8(%ebp),%eax
  100b21:	8d 50 01             	lea    0x1(%eax),%edx
  100b24:	89 55 08             	mov    %edx,0x8(%ebp)
  100b27:	c6 00 00             	movb   $0x0,(%eax)
static int
parse(char *buf, char **argv) {
    int argc = 0;
    while (1) {
        // find global whitespace
        while (*buf != '\0' && strchr(WHITESPACE, *buf) != NULL) {
  100b2a:	8b 45 08             	mov    0x8(%ebp),%eax
  100b2d:	0f b6 00             	movzbl (%eax),%eax
  100b30:	84 c0                	test   %al,%al
  100b32:	74 1e                	je     100b52 <parse+0x43>
  100b34:	8b 45 08             	mov    0x8(%ebp),%eax
  100b37:	0f b6 00             	movzbl (%eax),%eax
  100b3a:	0f be c0             	movsbl %al,%eax
  100b3d:	83 ec 08             	sub    $0x8,%esp
  100b40:	50                   	push   %eax
  100b41:	68 a0 5e 10 00       	push   $0x105ea0
  100b46:	e8 6e 47 00 00       	call   1052b9 <strchr>
  100b4b:	83 c4 10             	add    $0x10,%esp
  100b4e:	85 c0                	test   %eax,%eax
  100b50:	75 cc                	jne    100b1e <parse+0xf>
            *buf ++ = '\0';
        }
        if (*buf == '\0') {
  100b52:	8b 45 08             	mov    0x8(%ebp),%eax
  100b55:	0f b6 00             	movzbl (%eax),%eax
  100b58:	84 c0                	test   %al,%al
  100b5a:	74 69                	je     100bc5 <parse+0xb6>
            break;
        }

        // save and scan past next arg
        if (argc == MAXARGS - 1) {
  100b5c:	83 7d f4 0f          	cmpl   $0xf,-0xc(%ebp)
  100b60:	75 12                	jne    100b74 <parse+0x65>
            cprintf("Too many arguments (max %d).\n", MAXARGS);
  100b62:	83 ec 08             	sub    $0x8,%esp
  100b65:	6a 10                	push   $0x10
  100b67:	68 a5 5e 10 00       	push   $0x105ea5
  100b6c:	e8 fe f6 ff ff       	call   10026f <cprintf>
  100b71:	83 c4 10             	add    $0x10,%esp
        }
        argv[argc ++] = buf;
  100b74:	8b 45 f4             	mov    -0xc(%ebp),%eax
  100b77:	8d 50 01             	lea    0x1(%eax),%edx
  100b7a:	89 55 f4             	mov    %edx,-0xc(%ebp)
  100b7d:	8d 14 85 00 00 00 00 	lea    0x0(,%eax,4),%edx
  100b84:	8b 45 0c             	mov    0xc(%ebp),%eax
  100b87:	01 c2                	add    %eax,%edx
  100b89:	8b 45 08             	mov    0x8(%ebp),%eax
  100b8c:	89 02                	mov    %eax,(%edx)
        while (*buf != '\0' && strchr(WHITESPACE, *buf) == NULL) {
  100b8e:	eb 04                	jmp    100b94 <parse+0x85>
            buf ++;
  100b90:	83 45 08 01          	addl   $0x1,0x8(%ebp)
        // save and scan past next arg
        if (argc == MAXARGS - 1) {
            cprintf("Too many arguments (max %d).\n", MAXARGS);
        }
        argv[argc ++] = buf;
        while (*buf != '\0' && strchr(WHITESPACE, *buf) == NULL) {
  100b94:	8b 45 08             	mov    0x8(%ebp),%eax
  100b97:	0f b6 00             	movzbl (%eax),%eax
  100b9a:	84 c0                	test   %al,%al
  100b9c:	0f 84 7a ff ff ff    	je     100b1c <parse+0xd>
  100ba2:	8b 45 08             	mov    0x8(%ebp),%eax
  100ba5:	0f b6 00             	movzbl (%eax),%eax
  100ba8:	0f be c0             	movsbl %al,%eax
  100bab:	83 ec 08             	sub    $0x8,%esp
  100bae:	50                   	push   %eax
  100baf:	68 a0 5e 10 00       	push   $0x105ea0
  100bb4:	e8 00 47 00 00       	call   1052b9 <strchr>
  100bb9:	83 c4 10             	add    $0x10,%esp
  100bbc:	85 c0                	test   %eax,%eax
  100bbe:	74 d0                	je     100b90 <parse+0x81>
            buf ++;
        }
    }
  100bc0:	e9 57 ff ff ff       	jmp    100b1c <parse+0xd>
        // find global whitespace
        while (*buf != '\0' && strchr(WHITESPACE, *buf) != NULL) {
            *buf ++ = '\0';
        }
        if (*buf == '\0') {
            break;
  100bc5:	90                   	nop
        argv[argc ++] = buf;
        while (*buf != '\0' && strchr(WHITESPACE, *buf) == NULL) {
            buf ++;
        }
    }
    return argc;
  100bc6:	8b 45 f4             	mov    -0xc(%ebp),%eax
}
  100bc9:	c9                   	leave  
  100bca:	c3                   	ret    

00100bcb <runcmd>:
/* *
 * runcmd - parse the input string, split it into separated arguments
 * and then lookup and invoke some related commands/
 * */
static int
runcmd(char *buf, struct trapframe *tf) {
  100bcb:	55                   	push   %ebp
  100bcc:	89 e5                	mov    %esp,%ebp
  100bce:	83 ec 58             	sub    $0x58,%esp
    char *argv[MAXARGS];
    int argc = parse(buf, argv);
  100bd1:	83 ec 08             	sub    $0x8,%esp
  100bd4:	8d 45 b0             	lea    -0x50(%ebp),%eax
  100bd7:	50                   	push   %eax
  100bd8:	ff 75 08             	pushl  0x8(%ebp)
  100bdb:	e8 2f ff ff ff       	call   100b0f <parse>
  100be0:	83 c4 10             	add    $0x10,%esp
  100be3:	89 45 f0             	mov    %eax,-0x10(%ebp)
    if (argc == 0) {
  100be6:	83 7d f0 00          	cmpl   $0x0,-0x10(%ebp)
  100bea:	75 0a                	jne    100bf6 <runcmd+0x2b>
        return 0;
  100bec:	b8 00 00 00 00       	mov    $0x0,%eax
  100bf1:	e9 83 00 00 00       	jmp    100c79 <runcmd+0xae>
    }
    int i;
    for (i = 0; i < NCOMMANDS; i ++) {
  100bf6:	c7 45 f4 00 00 00 00 	movl   $0x0,-0xc(%ebp)
  100bfd:	eb 59                	jmp    100c58 <runcmd+0x8d>
        if (strcmp(commands[i].name, argv[0]) == 0) {
  100bff:	8b 4d b0             	mov    -0x50(%ebp),%ecx
  100c02:	8b 55 f4             	mov    -0xc(%ebp),%edx
  100c05:	89 d0                	mov    %edx,%eax
  100c07:	01 c0                	add    %eax,%eax
  100c09:	01 d0                	add    %edx,%eax
  100c0b:	c1 e0 02             	shl    $0x2,%eax
  100c0e:	05 20 70 11 00       	add    $0x117020,%eax
  100c13:	8b 00                	mov    (%eax),%eax
  100c15:	83 ec 08             	sub    $0x8,%esp
  100c18:	51                   	push   %ecx
  100c19:	50                   	push   %eax
  100c1a:	e8 fa 45 00 00       	call   105219 <strcmp>
  100c1f:	83 c4 10             	add    $0x10,%esp
  100c22:	85 c0                	test   %eax,%eax
  100c24:	75 2e                	jne    100c54 <runcmd+0x89>
            return commands[i].func(argc - 1, argv + 1, tf);
  100c26:	8b 55 f4             	mov    -0xc(%ebp),%edx
  100c29:	89 d0                	mov    %edx,%eax
  100c2b:	01 c0                	add    %eax,%eax
  100c2d:	01 d0                	add    %edx,%eax
  100c2f:	c1 e0 02             	shl    $0x2,%eax
  100c32:	05 28 70 11 00       	add    $0x117028,%eax
  100c37:	8b 10                	mov    (%eax),%edx
  100c39:	8d 45 b0             	lea    -0x50(%ebp),%eax
  100c3c:	83 c0 04             	add    $0x4,%eax
  100c3f:	8b 4d f0             	mov    -0x10(%ebp),%ecx
  100c42:	83 e9 01             	sub    $0x1,%ecx
  100c45:	83 ec 04             	sub    $0x4,%esp
  100c48:	ff 75 0c             	pushl  0xc(%ebp)
  100c4b:	50                   	push   %eax
  100c4c:	51                   	push   %ecx
  100c4d:	ff d2                	call   *%edx
  100c4f:	83 c4 10             	add    $0x10,%esp
  100c52:	eb 25                	jmp    100c79 <runcmd+0xae>
    int argc = parse(buf, argv);
    if (argc == 0) {
        return 0;
    }
    int i;
    for (i = 0; i < NCOMMANDS; i ++) {
  100c54:	83 45 f4 01          	addl   $0x1,-0xc(%ebp)
  100c58:	8b 45 f4             	mov    -0xc(%ebp),%eax
  100c5b:	83 f8 02             	cmp    $0x2,%eax
  100c5e:	76 9f                	jbe    100bff <runcmd+0x34>
        if (strcmp(commands[i].name, argv[0]) == 0) {
            return commands[i].func(argc - 1, argv + 1, tf);
        }
    }
    cprintf("Unknown command '%s'\n", argv[0]);
  100c60:	8b 45 b0             	mov    -0x50(%ebp),%eax
  100c63:	83 ec 08             	sub    $0x8,%esp
  100c66:	50                   	push   %eax
  100c67:	68 c3 5e 10 00       	push   $0x105ec3
  100c6c:	e8 fe f5 ff ff       	call   10026f <cprintf>
  100c71:	83 c4 10             	add    $0x10,%esp
    return 0;
  100c74:	b8 00 00 00 00       	mov    $0x0,%eax
}
  100c79:	c9                   	leave  
  100c7a:	c3                   	ret    

00100c7b <kmonitor>:

/***** Implementations of basic kernel monitor commands *****/

void
kmonitor(struct trapframe *tf) {
  100c7b:	55                   	push   %ebp
  100c7c:	89 e5                	mov    %esp,%ebp
  100c7e:	83 ec 18             	sub    $0x18,%esp
    cprintf("Welcome to the kernel debug monitor!!\n");
  100c81:	83 ec 0c             	sub    $0xc,%esp
  100c84:	68 dc 5e 10 00       	push   $0x105edc
  100c89:	e8 e1 f5 ff ff       	call   10026f <cprintf>
  100c8e:	83 c4 10             	add    $0x10,%esp
    cprintf("Type 'help' for a list of commands.\n");
  100c91:	83 ec 0c             	sub    $0xc,%esp
  100c94:	68 04 5f 10 00       	push   $0x105f04
  100c99:	e8 d1 f5 ff ff       	call   10026f <cprintf>
  100c9e:	83 c4 10             	add    $0x10,%esp

    if (tf != NULL) {
  100ca1:	83 7d 08 00          	cmpl   $0x0,0x8(%ebp)
  100ca5:	74 0e                	je     100cb5 <kmonitor+0x3a>
        print_trapframe(tf);
  100ca7:	83 ec 0c             	sub    $0xc,%esp
  100caa:	ff 75 08             	pushl  0x8(%ebp)
  100cad:	e8 9e 0d 00 00       	call   101a50 <print_trapframe>
  100cb2:	83 c4 10             	add    $0x10,%esp
    }

    char *buf;
    while (1) {
        if ((buf = readline("K> ")) != NULL) {
  100cb5:	83 ec 0c             	sub    $0xc,%esp
  100cb8:	68 29 5f 10 00       	push   $0x105f29
  100cbd:	e8 51 f6 ff ff       	call   100313 <readline>
  100cc2:	83 c4 10             	add    $0x10,%esp
  100cc5:	89 45 f4             	mov    %eax,-0xc(%ebp)
  100cc8:	83 7d f4 00          	cmpl   $0x0,-0xc(%ebp)
  100ccc:	74 e7                	je     100cb5 <kmonitor+0x3a>
            if (runcmd(buf, tf) < 0) {
  100cce:	83 ec 08             	sub    $0x8,%esp
  100cd1:	ff 75 08             	pushl  0x8(%ebp)
  100cd4:	ff 75 f4             	pushl  -0xc(%ebp)
  100cd7:	e8 ef fe ff ff       	call   100bcb <runcmd>
  100cdc:	83 c4 10             	add    $0x10,%esp
  100cdf:	85 c0                	test   %eax,%eax
  100ce1:	78 02                	js     100ce5 <kmonitor+0x6a>
                break;
            }
        }
    }
  100ce3:	eb d0                	jmp    100cb5 <kmonitor+0x3a>

    char *buf;
    while (1) {
        if ((buf = readline("K> ")) != NULL) {
            if (runcmd(buf, tf) < 0) {
                break;
  100ce5:	90                   	nop
            }
        }
    }
}
  100ce6:	90                   	nop
  100ce7:	c9                   	leave  
  100ce8:	c3                   	ret    

00100ce9 <mon_help>:

/* mon_help - print the information about mon_* functions */
int
mon_help(int argc, char **argv, struct trapframe *tf) {
  100ce9:	55                   	push   %ebp
  100cea:	89 e5                	mov    %esp,%ebp
  100cec:	83 ec 18             	sub    $0x18,%esp
    int i;
    for (i = 0; i < NCOMMANDS; i ++) {
  100cef:	c7 45 f4 00 00 00 00 	movl   $0x0,-0xc(%ebp)
  100cf6:	eb 3c                	jmp    100d34 <mon_help+0x4b>
        cprintf("%s - %s\n", commands[i].name, commands[i].desc);
  100cf8:	8b 55 f4             	mov    -0xc(%ebp),%edx
  100cfb:	89 d0                	mov    %edx,%eax
  100cfd:	01 c0                	add    %eax,%eax
  100cff:	01 d0                	add    %edx,%eax
  100d01:	c1 e0 02             	shl    $0x2,%eax
  100d04:	05 24 70 11 00       	add    $0x117024,%eax
  100d09:	8b 08                	mov    (%eax),%ecx
  100d0b:	8b 55 f4             	mov    -0xc(%ebp),%edx
  100d0e:	89 d0                	mov    %edx,%eax
  100d10:	01 c0                	add    %eax,%eax
  100d12:	01 d0                	add    %edx,%eax
  100d14:	c1 e0 02             	shl    $0x2,%eax
  100d17:	05 20 70 11 00       	add    $0x117020,%eax
  100d1c:	8b 00                	mov    (%eax),%eax
  100d1e:	83 ec 04             	sub    $0x4,%esp
  100d21:	51                   	push   %ecx
  100d22:	50                   	push   %eax
  100d23:	68 2d 5f 10 00       	push   $0x105f2d
  100d28:	e8 42 f5 ff ff       	call   10026f <cprintf>
  100d2d:	83 c4 10             	add    $0x10,%esp

/* mon_help - print the information about mon_* functions */
int
mon_help(int argc, char **argv, struct trapframe *tf) {
    int i;
    for (i = 0; i < NCOMMANDS; i ++) {
  100d30:	83 45 f4 01          	addl   $0x1,-0xc(%ebp)
  100d34:	8b 45 f4             	mov    -0xc(%ebp),%eax
  100d37:	83 f8 02             	cmp    $0x2,%eax
  100d3a:	76 bc                	jbe    100cf8 <mon_help+0xf>
        cprintf("%s - %s\n", commands[i].name, commands[i].desc);
    }
    return 0;
  100d3c:	b8 00 00 00 00       	mov    $0x0,%eax
}
  100d41:	c9                   	leave  
  100d42:	c3                   	ret    

00100d43 <mon_kerninfo>:
/* *
 * mon_kerninfo - call print_kerninfo in kern/debug/kdebug.c to
 * print the memory occupancy in kernel.
 * */
int
mon_kerninfo(int argc, char **argv, struct trapframe *tf) {
  100d43:	55                   	push   %ebp
  100d44:	89 e5                	mov    %esp,%ebp
  100d46:	83 ec 08             	sub    $0x8,%esp
    print_kerninfo();
  100d49:	e8 ab fb ff ff       	call   1008f9 <print_kerninfo>
    return 0;
  100d4e:	b8 00 00 00 00       	mov    $0x0,%eax
}
  100d53:	c9                   	leave  
  100d54:	c3                   	ret    

00100d55 <mon_backtrace>:
/* *
 * mon_backtrace - call print_stackframe in kern/debug/kdebug.c to
 * print a backtrace of the stack.
 * */
int
mon_backtrace(int argc, char **argv, struct trapframe *tf) {
  100d55:	55                   	push   %ebp
  100d56:	89 e5                	mov    %esp,%ebp
  100d58:	83 ec 08             	sub    $0x8,%esp
    print_stackframe();
  100d5b:	e8 e3 fc ff ff       	call   100a43 <print_stackframe>
    return 0;
  100d60:	b8 00 00 00 00       	mov    $0x0,%eax
}
  100d65:	c9                   	leave  
  100d66:	c3                   	ret    

00100d67 <clock_init>:
/* *
 * clock_init - initialize 8253 clock to interrupt 100 times per second,
 * and then enable IRQ_TIMER.
 * */
void
clock_init(void) {
  100d67:	55                   	push   %ebp
  100d68:	89 e5                	mov    %esp,%ebp
  100d6a:	83 ec 18             	sub    $0x18,%esp
  100d6d:	66 c7 45 f6 43 00    	movw   $0x43,-0xa(%ebp)
  100d73:	c6 45 ef 34          	movb   $0x34,-0x11(%ebp)
        : "memory", "cc");
}

static inline void
outb(uint16_t port, uint8_t data) {
    asm volatile ("outb %0, %1" :: "a" (data), "d" (port) : "memory");
  100d77:	0f b6 45 ef          	movzbl -0x11(%ebp),%eax
  100d7b:	0f b7 55 f6          	movzwl -0xa(%ebp),%edx
  100d7f:	ee                   	out    %al,(%dx)
  100d80:	66 c7 45 f4 40 00    	movw   $0x40,-0xc(%ebp)
  100d86:	c6 45 f0 9c          	movb   $0x9c,-0x10(%ebp)
  100d8a:	0f b6 45 f0          	movzbl -0x10(%ebp),%eax
  100d8e:	0f b7 55 f4          	movzwl -0xc(%ebp),%edx
  100d92:	ee                   	out    %al,(%dx)
  100d93:	66 c7 45 f2 40 00    	movw   $0x40,-0xe(%ebp)
  100d99:	c6 45 f1 2e          	movb   $0x2e,-0xf(%ebp)
  100d9d:	0f b6 45 f1          	movzbl -0xf(%ebp),%eax
  100da1:	0f b7 55 f2          	movzwl -0xe(%ebp),%edx
  100da5:	ee                   	out    %al,(%dx)
    outb(TIMER_MODE, TIMER_SEL0 | TIMER_RATEGEN | TIMER_16BIT);
    outb(IO_TIMER1, TIMER_DIV(100) % 256);
    outb(IO_TIMER1, TIMER_DIV(100) / 256);

    // initialize time counter 'ticks' to zero
    ticks = 0;
  100da6:	c7 05 4c 89 11 00 00 	movl   $0x0,0x11894c
  100dad:	00 00 00 

    cprintf("++ setup timer interrupts\n");
  100db0:	83 ec 0c             	sub    $0xc,%esp
  100db3:	68 36 5f 10 00       	push   $0x105f36
  100db8:	e8 b2 f4 ff ff       	call   10026f <cprintf>
  100dbd:	83 c4 10             	add    $0x10,%esp
    pic_enable(IRQ_TIMER);
  100dc0:	83 ec 0c             	sub    $0xc,%esp
  100dc3:	6a 00                	push   $0x0
  100dc5:	e8 3b 09 00 00       	call   101705 <pic_enable>
  100dca:	83 c4 10             	add    $0x10,%esp
}
  100dcd:	90                   	nop
  100dce:	c9                   	leave  
  100dcf:	c3                   	ret    

00100dd0 <__intr_save>:
#include <x86.h>
#include <intr.h>
#include <mmu.h>

static inline bool
__intr_save(void) {
  100dd0:	55                   	push   %ebp
  100dd1:	89 e5                	mov    %esp,%ebp
  100dd3:	83 ec 18             	sub    $0x18,%esp
}

static inline uint32_t
read_eflags(void) {
    uint32_t eflags;
    asm volatile ("pushfl; popl %0" : "=r" (eflags));
  100dd6:	9c                   	pushf  
  100dd7:	58                   	pop    %eax
  100dd8:	89 45 f4             	mov    %eax,-0xc(%ebp)
    return eflags;
  100ddb:	8b 45 f4             	mov    -0xc(%ebp),%eax
    if (read_eflags() & FL_IF) {
  100dde:	25 00 02 00 00       	and    $0x200,%eax
  100de3:	85 c0                	test   %eax,%eax
  100de5:	74 0c                	je     100df3 <__intr_save+0x23>
        intr_disable();
  100de7:	e8 8a 0a 00 00       	call   101876 <intr_disable>
        return 1;
  100dec:	b8 01 00 00 00       	mov    $0x1,%eax
  100df1:	eb 05                	jmp    100df8 <__intr_save+0x28>
    }
    return 0;
  100df3:	b8 00 00 00 00       	mov    $0x0,%eax
}
  100df8:	c9                   	leave  
  100df9:	c3                   	ret    

00100dfa <__intr_restore>:

static inline void
__intr_restore(bool flag) {
  100dfa:	55                   	push   %ebp
  100dfb:	89 e5                	mov    %esp,%ebp
  100dfd:	83 ec 08             	sub    $0x8,%esp
    if (flag) {
  100e00:	83 7d 08 00          	cmpl   $0x0,0x8(%ebp)
  100e04:	74 05                	je     100e0b <__intr_restore+0x11>
        intr_enable();
  100e06:	e8 64 0a 00 00       	call   10186f <intr_enable>
    }
}
  100e0b:	90                   	nop
  100e0c:	c9                   	leave  
  100e0d:	c3                   	ret    

00100e0e <delay>:
#include <memlayout.h>
#include <sync.h>

/* stupid I/O delay routine necessitated by historical PC design flaws */
static void
delay(void) {
  100e0e:	55                   	push   %ebp
  100e0f:	89 e5                	mov    %esp,%ebp
  100e11:	83 ec 10             	sub    $0x10,%esp
  100e14:	66 c7 45 fe 84 00    	movw   $0x84,-0x2(%ebp)
static inline void invlpg(void *addr) __attribute__((always_inline));

static inline uint8_t
inb(uint16_t port) {
    uint8_t data;
    asm volatile ("inb %1, %0" : "=a" (data) : "d" (port) : "memory");
  100e1a:	0f b7 45 fe          	movzwl -0x2(%ebp),%eax
  100e1e:	89 c2                	mov    %eax,%edx
  100e20:	ec                   	in     (%dx),%al
  100e21:	88 45 f4             	mov    %al,-0xc(%ebp)
  100e24:	66 c7 45 fc 84 00    	movw   $0x84,-0x4(%ebp)
  100e2a:	0f b7 45 fc          	movzwl -0x4(%ebp),%eax
  100e2e:	89 c2                	mov    %eax,%edx
  100e30:	ec                   	in     (%dx),%al
  100e31:	88 45 f5             	mov    %al,-0xb(%ebp)
  100e34:	66 c7 45 fa 84 00    	movw   $0x84,-0x6(%ebp)
  100e3a:	0f b7 45 fa          	movzwl -0x6(%ebp),%eax
  100e3e:	89 c2                	mov    %eax,%edx
  100e40:	ec                   	in     (%dx),%al
  100e41:	88 45 f6             	mov    %al,-0xa(%ebp)
  100e44:	66 c7 45 f8 84 00    	movw   $0x84,-0x8(%ebp)
  100e4a:	0f b7 45 f8          	movzwl -0x8(%ebp),%eax
  100e4e:	89 c2                	mov    %eax,%edx
  100e50:	ec                   	in     (%dx),%al
  100e51:	88 45 f7             	mov    %al,-0x9(%ebp)
    inb(0x84);
    inb(0x84);
    inb(0x84);
    inb(0x84);
}
  100e54:	90                   	nop
  100e55:	c9                   	leave  
  100e56:	c3                   	ret    

00100e57 <cga_init>:
static uint16_t addr_6845;

/* TEXT-mode CGA/VGA display output */

static void
cga_init(void) {
  100e57:	55                   	push   %ebp
  100e58:	89 e5                	mov    %esp,%ebp
  100e5a:	83 ec 20             	sub    $0x20,%esp
    volatile uint16_t *cp = (uint16_t *)(CGA_BUF + KERNBASE);
  100e5d:	c7 45 fc 00 80 0b c0 	movl   $0xc00b8000,-0x4(%ebp)
    uint16_t was = *cp;
  100e64:	8b 45 fc             	mov    -0x4(%ebp),%eax
  100e67:	0f b7 00             	movzwl (%eax),%eax
  100e6a:	66 89 45 fa          	mov    %ax,-0x6(%ebp)
    *cp = (uint16_t) 0xA55A;
  100e6e:	8b 45 fc             	mov    -0x4(%ebp),%eax
  100e71:	66 c7 00 5a a5       	movw   $0xa55a,(%eax)
    if (*cp != 0xA55A) {
  100e76:	8b 45 fc             	mov    -0x4(%ebp),%eax
  100e79:	0f b7 00             	movzwl (%eax),%eax
  100e7c:	66 3d 5a a5          	cmp    $0xa55a,%ax
  100e80:	74 12                	je     100e94 <cga_init+0x3d>
        cp = (uint16_t*)(MONO_BUF + KERNBASE);
  100e82:	c7 45 fc 00 00 0b c0 	movl   $0xc00b0000,-0x4(%ebp)
        addr_6845 = MONO_BASE;
  100e89:	66 c7 05 86 7e 11 00 	movw   $0x3b4,0x117e86
  100e90:	b4 03 
  100e92:	eb 13                	jmp    100ea7 <cga_init+0x50>
    } else {
        *cp = was;
  100e94:	8b 45 fc             	mov    -0x4(%ebp),%eax
  100e97:	0f b7 55 fa          	movzwl -0x6(%ebp),%edx
  100e9b:	66 89 10             	mov    %dx,(%eax)
        addr_6845 = CGA_BASE;
  100e9e:	66 c7 05 86 7e 11 00 	movw   $0x3d4,0x117e86
  100ea5:	d4 03 
    }

    // Extract cursor location
    uint32_t pos;
    outb(addr_6845, 14);
  100ea7:	0f b7 05 86 7e 11 00 	movzwl 0x117e86,%eax
  100eae:	0f b7 c0             	movzwl %ax,%eax
  100eb1:	66 89 45 f8          	mov    %ax,-0x8(%ebp)
  100eb5:	c6 45 ea 0e          	movb   $0xe,-0x16(%ebp)
        : "memory", "cc");
}

static inline void
outb(uint16_t port, uint8_t data) {
    asm volatile ("outb %0, %1" :: "a" (data), "d" (port) : "memory");
  100eb9:	0f b6 45 ea          	movzbl -0x16(%ebp),%eax
  100ebd:	0f b7 55 f8          	movzwl -0x8(%ebp),%edx
  100ec1:	ee                   	out    %al,(%dx)
    pos = inb(addr_6845 + 1) << 8;
  100ec2:	0f b7 05 86 7e 11 00 	movzwl 0x117e86,%eax
  100ec9:	83 c0 01             	add    $0x1,%eax
  100ecc:	0f b7 c0             	movzwl %ax,%eax
  100ecf:	66 89 45 f2          	mov    %ax,-0xe(%ebp)
static inline void invlpg(void *addr) __attribute__((always_inline));

static inline uint8_t
inb(uint16_t port) {
    uint8_t data;
    asm volatile ("inb %1, %0" : "=a" (data) : "d" (port) : "memory");
  100ed3:	0f b7 45 f2          	movzwl -0xe(%ebp),%eax
  100ed7:	89 c2                	mov    %eax,%edx
  100ed9:	ec                   	in     (%dx),%al
  100eda:	88 45 eb             	mov    %al,-0x15(%ebp)
    return data;
  100edd:	0f b6 45 eb          	movzbl -0x15(%ebp),%eax
  100ee1:	0f b6 c0             	movzbl %al,%eax
  100ee4:	c1 e0 08             	shl    $0x8,%eax
  100ee7:	89 45 f4             	mov    %eax,-0xc(%ebp)
    outb(addr_6845, 15);
  100eea:	0f b7 05 86 7e 11 00 	movzwl 0x117e86,%eax
  100ef1:	0f b7 c0             	movzwl %ax,%eax
  100ef4:	66 89 45 f0          	mov    %ax,-0x10(%ebp)
  100ef8:	c6 45 ec 0f          	movb   $0xf,-0x14(%ebp)
        : "memory", "cc");
}

static inline void
outb(uint16_t port, uint8_t data) {
    asm volatile ("outb %0, %1" :: "a" (data), "d" (port) : "memory");
  100efc:	0f b6 45 ec          	movzbl -0x14(%ebp),%eax
  100f00:	0f b7 55 f0          	movzwl -0x10(%ebp),%edx
  100f04:	ee                   	out    %al,(%dx)
    pos |= inb(addr_6845 + 1);
  100f05:	0f b7 05 86 7e 11 00 	movzwl 0x117e86,%eax
  100f0c:	83 c0 01             	add    $0x1,%eax
  100f0f:	0f b7 c0             	movzwl %ax,%eax
  100f12:	66 89 45 ee          	mov    %ax,-0x12(%ebp)
static inline void invlpg(void *addr) __attribute__((always_inline));

static inline uint8_t
inb(uint16_t port) {
    uint8_t data;
    asm volatile ("inb %1, %0" : "=a" (data) : "d" (port) : "memory");
  100f16:	0f b7 45 ee          	movzwl -0x12(%ebp),%eax
  100f1a:	89 c2                	mov    %eax,%edx
  100f1c:	ec                   	in     (%dx),%al
  100f1d:	88 45 ed             	mov    %al,-0x13(%ebp)
    return data;
  100f20:	0f b6 45 ed          	movzbl -0x13(%ebp),%eax
  100f24:	0f b6 c0             	movzbl %al,%eax
  100f27:	09 45 f4             	or     %eax,-0xc(%ebp)

    crt_buf = (uint16_t*) cp;
  100f2a:	8b 45 fc             	mov    -0x4(%ebp),%eax
  100f2d:	a3 80 7e 11 00       	mov    %eax,0x117e80
    crt_pos = pos;
  100f32:	8b 45 f4             	mov    -0xc(%ebp),%eax
  100f35:	66 a3 84 7e 11 00    	mov    %ax,0x117e84
}
  100f3b:	90                   	nop
  100f3c:	c9                   	leave  
  100f3d:	c3                   	ret    

00100f3e <serial_init>:

static bool serial_exists = 0;

static void
serial_init(void) {
  100f3e:	55                   	push   %ebp
  100f3f:	89 e5                	mov    %esp,%ebp
  100f41:	83 ec 28             	sub    $0x28,%esp
  100f44:	66 c7 45 f6 fa 03    	movw   $0x3fa,-0xa(%ebp)
  100f4a:	c6 45 da 00          	movb   $0x0,-0x26(%ebp)
        : "memory", "cc");
}

static inline void
outb(uint16_t port, uint8_t data) {
    asm volatile ("outb %0, %1" :: "a" (data), "d" (port) : "memory");
  100f4e:	0f b6 45 da          	movzbl -0x26(%ebp),%eax
  100f52:	0f b7 55 f6          	movzwl -0xa(%ebp),%edx
  100f56:	ee                   	out    %al,(%dx)
  100f57:	66 c7 45 f4 fb 03    	movw   $0x3fb,-0xc(%ebp)
  100f5d:	c6 45 db 80          	movb   $0x80,-0x25(%ebp)
  100f61:	0f b6 45 db          	movzbl -0x25(%ebp),%eax
  100f65:	0f b7 55 f4          	movzwl -0xc(%ebp),%edx
  100f69:	ee                   	out    %al,(%dx)
  100f6a:	66 c7 45 f2 f8 03    	movw   $0x3f8,-0xe(%ebp)
  100f70:	c6 45 dc 0c          	movb   $0xc,-0x24(%ebp)
  100f74:	0f b6 45 dc          	movzbl -0x24(%ebp),%eax
  100f78:	0f b7 55 f2          	movzwl -0xe(%ebp),%edx
  100f7c:	ee                   	out    %al,(%dx)
  100f7d:	66 c7 45 f0 f9 03    	movw   $0x3f9,-0x10(%ebp)
  100f83:	c6 45 dd 00          	movb   $0x0,-0x23(%ebp)
  100f87:	0f b6 45 dd          	movzbl -0x23(%ebp),%eax
  100f8b:	0f b7 55 f0          	movzwl -0x10(%ebp),%edx
  100f8f:	ee                   	out    %al,(%dx)
  100f90:	66 c7 45 ee fb 03    	movw   $0x3fb,-0x12(%ebp)
  100f96:	c6 45 de 03          	movb   $0x3,-0x22(%ebp)
  100f9a:	0f b6 45 de          	movzbl -0x22(%ebp),%eax
  100f9e:	0f b7 55 ee          	movzwl -0x12(%ebp),%edx
  100fa2:	ee                   	out    %al,(%dx)
  100fa3:	66 c7 45 ec fc 03    	movw   $0x3fc,-0x14(%ebp)
  100fa9:	c6 45 df 00          	movb   $0x0,-0x21(%ebp)
  100fad:	0f b6 45 df          	movzbl -0x21(%ebp),%eax
  100fb1:	0f b7 55 ec          	movzwl -0x14(%ebp),%edx
  100fb5:	ee                   	out    %al,(%dx)
  100fb6:	66 c7 45 ea f9 03    	movw   $0x3f9,-0x16(%ebp)
  100fbc:	c6 45 e0 01          	movb   $0x1,-0x20(%ebp)
  100fc0:	0f b6 45 e0          	movzbl -0x20(%ebp),%eax
  100fc4:	0f b7 55 ea          	movzwl -0x16(%ebp),%edx
  100fc8:	ee                   	out    %al,(%dx)
  100fc9:	66 c7 45 e8 fd 03    	movw   $0x3fd,-0x18(%ebp)
static inline void invlpg(void *addr) __attribute__((always_inline));

static inline uint8_t
inb(uint16_t port) {
    uint8_t data;
    asm volatile ("inb %1, %0" : "=a" (data) : "d" (port) : "memory");
  100fcf:	0f b7 45 e8          	movzwl -0x18(%ebp),%eax
  100fd3:	89 c2                	mov    %eax,%edx
  100fd5:	ec                   	in     (%dx),%al
  100fd6:	88 45 e1             	mov    %al,-0x1f(%ebp)
    return data;
  100fd9:	0f b6 45 e1          	movzbl -0x1f(%ebp),%eax
    // Enable rcv interrupts
    outb(COM1 + COM_IER, COM_IER_RDI);

    // Clear any preexisting overrun indications and interrupts
    // Serial port doesn't exist if COM_LSR returns 0xFF
    serial_exists = (inb(COM1 + COM_LSR) != 0xFF);
  100fdd:	3c ff                	cmp    $0xff,%al
  100fdf:	0f 95 c0             	setne  %al
  100fe2:	0f b6 c0             	movzbl %al,%eax
  100fe5:	a3 88 7e 11 00       	mov    %eax,0x117e88
  100fea:	66 c7 45 e6 fa 03    	movw   $0x3fa,-0x1a(%ebp)
static inline void invlpg(void *addr) __attribute__((always_inline));

static inline uint8_t
inb(uint16_t port) {
    uint8_t data;
    asm volatile ("inb %1, %0" : "=a" (data) : "d" (port) : "memory");
  100ff0:	0f b7 45 e6          	movzwl -0x1a(%ebp),%eax
  100ff4:	89 c2                	mov    %eax,%edx
  100ff6:	ec                   	in     (%dx),%al
  100ff7:	88 45 e2             	mov    %al,-0x1e(%ebp)
  100ffa:	66 c7 45 e4 f8 03    	movw   $0x3f8,-0x1c(%ebp)
  101000:	0f b7 45 e4          	movzwl -0x1c(%ebp),%eax
  101004:	89 c2                	mov    %eax,%edx
  101006:	ec                   	in     (%dx),%al
  101007:	88 45 e3             	mov    %al,-0x1d(%ebp)
    (void) inb(COM1+COM_IIR);
    (void) inb(COM1+COM_RX);

    if (serial_exists) {
  10100a:	a1 88 7e 11 00       	mov    0x117e88,%eax
  10100f:	85 c0                	test   %eax,%eax
  101011:	74 0d                	je     101020 <serial_init+0xe2>
        pic_enable(IRQ_COM1);
  101013:	83 ec 0c             	sub    $0xc,%esp
  101016:	6a 04                	push   $0x4
  101018:	e8 e8 06 00 00       	call   101705 <pic_enable>
  10101d:	83 c4 10             	add    $0x10,%esp
    }
}
  101020:	90                   	nop
  101021:	c9                   	leave  
  101022:	c3                   	ret    

00101023 <lpt_putc_sub>:

static void
lpt_putc_sub(int c) {
  101023:	55                   	push   %ebp
  101024:	89 e5                	mov    %esp,%ebp
  101026:	83 ec 10             	sub    $0x10,%esp
    int i;
    for (i = 0; !(inb(LPTPORT + 1) & 0x80) && i < 12800; i ++) {
  101029:	c7 45 fc 00 00 00 00 	movl   $0x0,-0x4(%ebp)
  101030:	eb 09                	jmp    10103b <lpt_putc_sub+0x18>
        delay();
  101032:	e8 d7 fd ff ff       	call   100e0e <delay>
}

static void
lpt_putc_sub(int c) {
    int i;
    for (i = 0; !(inb(LPTPORT + 1) & 0x80) && i < 12800; i ++) {
  101037:	83 45 fc 01          	addl   $0x1,-0x4(%ebp)
  10103b:	66 c7 45 f4 79 03    	movw   $0x379,-0xc(%ebp)
  101041:	0f b7 45 f4          	movzwl -0xc(%ebp),%eax
  101045:	89 c2                	mov    %eax,%edx
  101047:	ec                   	in     (%dx),%al
  101048:	88 45 f3             	mov    %al,-0xd(%ebp)
    return data;
  10104b:	0f b6 45 f3          	movzbl -0xd(%ebp),%eax
  10104f:	84 c0                	test   %al,%al
  101051:	78 09                	js     10105c <lpt_putc_sub+0x39>
  101053:	81 7d fc ff 31 00 00 	cmpl   $0x31ff,-0x4(%ebp)
  10105a:	7e d6                	jle    101032 <lpt_putc_sub+0xf>
        delay();
    }
    outb(LPTPORT + 0, c);
  10105c:	8b 45 08             	mov    0x8(%ebp),%eax
  10105f:	0f b6 c0             	movzbl %al,%eax
  101062:	66 c7 45 f8 78 03    	movw   $0x378,-0x8(%ebp)
  101068:	88 45 f0             	mov    %al,-0x10(%ebp)
        : "memory", "cc");
}

static inline void
outb(uint16_t port, uint8_t data) {
    asm volatile ("outb %0, %1" :: "a" (data), "d" (port) : "memory");
  10106b:	0f b6 45 f0          	movzbl -0x10(%ebp),%eax
  10106f:	0f b7 55 f8          	movzwl -0x8(%ebp),%edx
  101073:	ee                   	out    %al,(%dx)
  101074:	66 c7 45 f6 7a 03    	movw   $0x37a,-0xa(%ebp)
  10107a:	c6 45 f1 0d          	movb   $0xd,-0xf(%ebp)
  10107e:	0f b6 45 f1          	movzbl -0xf(%ebp),%eax
  101082:	0f b7 55 f6          	movzwl -0xa(%ebp),%edx
  101086:	ee                   	out    %al,(%dx)
  101087:	66 c7 45 fa 7a 03    	movw   $0x37a,-0x6(%ebp)
  10108d:	c6 45 f2 08          	movb   $0x8,-0xe(%ebp)
  101091:	0f b6 45 f2          	movzbl -0xe(%ebp),%eax
  101095:	0f b7 55 fa          	movzwl -0x6(%ebp),%edx
  101099:	ee                   	out    %al,(%dx)
    outb(LPTPORT + 2, 0x08 | 0x04 | 0x01);
    outb(LPTPORT + 2, 0x08);
}
  10109a:	90                   	nop
  10109b:	c9                   	leave  
  10109c:	c3                   	ret    

0010109d <lpt_putc>:

/* lpt_putc - copy console output to parallel port */
static void
lpt_putc(int c) {
  10109d:	55                   	push   %ebp
  10109e:	89 e5                	mov    %esp,%ebp
    if (c != '\b') {
  1010a0:	83 7d 08 08          	cmpl   $0x8,0x8(%ebp)
  1010a4:	74 0d                	je     1010b3 <lpt_putc+0x16>
        lpt_putc_sub(c);
  1010a6:	ff 75 08             	pushl  0x8(%ebp)
  1010a9:	e8 75 ff ff ff       	call   101023 <lpt_putc_sub>
  1010ae:	83 c4 04             	add    $0x4,%esp
    else {
        lpt_putc_sub('\b');
        lpt_putc_sub(' ');
        lpt_putc_sub('\b');
    }
}
  1010b1:	eb 1e                	jmp    1010d1 <lpt_putc+0x34>
lpt_putc(int c) {
    if (c != '\b') {
        lpt_putc_sub(c);
    }
    else {
        lpt_putc_sub('\b');
  1010b3:	6a 08                	push   $0x8
  1010b5:	e8 69 ff ff ff       	call   101023 <lpt_putc_sub>
  1010ba:	83 c4 04             	add    $0x4,%esp
        lpt_putc_sub(' ');
  1010bd:	6a 20                	push   $0x20
  1010bf:	e8 5f ff ff ff       	call   101023 <lpt_putc_sub>
  1010c4:	83 c4 04             	add    $0x4,%esp
        lpt_putc_sub('\b');
  1010c7:	6a 08                	push   $0x8
  1010c9:	e8 55 ff ff ff       	call   101023 <lpt_putc_sub>
  1010ce:	83 c4 04             	add    $0x4,%esp
    }
}
  1010d1:	90                   	nop
  1010d2:	c9                   	leave  
  1010d3:	c3                   	ret    

001010d4 <cga_putc>:

/* cga_putc - print character to console */
static void
cga_putc(int c) {
  1010d4:	55                   	push   %ebp
  1010d5:	89 e5                	mov    %esp,%ebp
  1010d7:	53                   	push   %ebx
  1010d8:	83 ec 14             	sub    $0x14,%esp
    // set black on white
    if (!(c & ~0xFF)) {
  1010db:	8b 45 08             	mov    0x8(%ebp),%eax
  1010de:	b0 00                	mov    $0x0,%al
  1010e0:	85 c0                	test   %eax,%eax
  1010e2:	75 07                	jne    1010eb <cga_putc+0x17>
        c |= 0x0700;
  1010e4:	81 4d 08 00 07 00 00 	orl    $0x700,0x8(%ebp)
    }

    switch (c & 0xff) {
  1010eb:	8b 45 08             	mov    0x8(%ebp),%eax
  1010ee:	0f b6 c0             	movzbl %al,%eax
  1010f1:	83 f8 0a             	cmp    $0xa,%eax
  1010f4:	74 4e                	je     101144 <cga_putc+0x70>
  1010f6:	83 f8 0d             	cmp    $0xd,%eax
  1010f9:	74 59                	je     101154 <cga_putc+0x80>
  1010fb:	83 f8 08             	cmp    $0x8,%eax
  1010fe:	0f 85 8a 00 00 00    	jne    10118e <cga_putc+0xba>
    case '\b':
        if (crt_pos > 0) {
  101104:	0f b7 05 84 7e 11 00 	movzwl 0x117e84,%eax
  10110b:	66 85 c0             	test   %ax,%ax
  10110e:	0f 84 a0 00 00 00    	je     1011b4 <cga_putc+0xe0>
            crt_pos --;
  101114:	0f b7 05 84 7e 11 00 	movzwl 0x117e84,%eax
  10111b:	83 e8 01             	sub    $0x1,%eax
  10111e:	66 a3 84 7e 11 00    	mov    %ax,0x117e84
            crt_buf[crt_pos] = (c & ~0xff) | ' ';
  101124:	a1 80 7e 11 00       	mov    0x117e80,%eax
  101129:	0f b7 15 84 7e 11 00 	movzwl 0x117e84,%edx
  101130:	0f b7 d2             	movzwl %dx,%edx
  101133:	01 d2                	add    %edx,%edx
  101135:	01 d0                	add    %edx,%eax
  101137:	8b 55 08             	mov    0x8(%ebp),%edx
  10113a:	b2 00                	mov    $0x0,%dl
  10113c:	83 ca 20             	or     $0x20,%edx
  10113f:	66 89 10             	mov    %dx,(%eax)
        }
        break;
  101142:	eb 70                	jmp    1011b4 <cga_putc+0xe0>
    case '\n':
        crt_pos += CRT_COLS;
  101144:	0f b7 05 84 7e 11 00 	movzwl 0x117e84,%eax
  10114b:	83 c0 50             	add    $0x50,%eax
  10114e:	66 a3 84 7e 11 00    	mov    %ax,0x117e84
    case '\r':
        crt_pos -= (crt_pos % CRT_COLS);
  101154:	0f b7 1d 84 7e 11 00 	movzwl 0x117e84,%ebx
  10115b:	0f b7 0d 84 7e 11 00 	movzwl 0x117e84,%ecx
  101162:	0f b7 c1             	movzwl %cx,%eax
  101165:	69 c0 cd cc 00 00    	imul   $0xcccd,%eax,%eax
  10116b:	c1 e8 10             	shr    $0x10,%eax
  10116e:	89 c2                	mov    %eax,%edx
  101170:	66 c1 ea 06          	shr    $0x6,%dx
  101174:	89 d0                	mov    %edx,%eax
  101176:	c1 e0 02             	shl    $0x2,%eax
  101179:	01 d0                	add    %edx,%eax
  10117b:	c1 e0 04             	shl    $0x4,%eax
  10117e:	29 c1                	sub    %eax,%ecx
  101180:	89 ca                	mov    %ecx,%edx
  101182:	89 d8                	mov    %ebx,%eax
  101184:	29 d0                	sub    %edx,%eax
  101186:	66 a3 84 7e 11 00    	mov    %ax,0x117e84
        break;
  10118c:	eb 27                	jmp    1011b5 <cga_putc+0xe1>
    default:
        crt_buf[crt_pos ++] = c;     // write the character
  10118e:	8b 0d 80 7e 11 00    	mov    0x117e80,%ecx
  101194:	0f b7 05 84 7e 11 00 	movzwl 0x117e84,%eax
  10119b:	8d 50 01             	lea    0x1(%eax),%edx
  10119e:	66 89 15 84 7e 11 00 	mov    %dx,0x117e84
  1011a5:	0f b7 c0             	movzwl %ax,%eax
  1011a8:	01 c0                	add    %eax,%eax
  1011aa:	01 c8                	add    %ecx,%eax
  1011ac:	8b 55 08             	mov    0x8(%ebp),%edx
  1011af:	66 89 10             	mov    %dx,(%eax)
        break;
  1011b2:	eb 01                	jmp    1011b5 <cga_putc+0xe1>
    case '\b':
        if (crt_pos > 0) {
            crt_pos --;
            crt_buf[crt_pos] = (c & ~0xff) | ' ';
        }
        break;
  1011b4:	90                   	nop
        crt_buf[crt_pos ++] = c;     // write the character
        break;
    }

    // What is the purpose of this?
    if (crt_pos >= CRT_SIZE) {
  1011b5:	0f b7 05 84 7e 11 00 	movzwl 0x117e84,%eax
  1011bc:	66 3d cf 07          	cmp    $0x7cf,%ax
  1011c0:	76 59                	jbe    10121b <cga_putc+0x147>
        int i;
        memmove(crt_buf, crt_buf + CRT_COLS, (CRT_SIZE - CRT_COLS) * sizeof(uint16_t));
  1011c2:	a1 80 7e 11 00       	mov    0x117e80,%eax
  1011c7:	8d 90 a0 00 00 00    	lea    0xa0(%eax),%edx
  1011cd:	a1 80 7e 11 00       	mov    0x117e80,%eax
  1011d2:	83 ec 04             	sub    $0x4,%esp
  1011d5:	68 00 0f 00 00       	push   $0xf00
  1011da:	52                   	push   %edx
  1011db:	50                   	push   %eax
  1011dc:	e8 d7 42 00 00       	call   1054b8 <memmove>
  1011e1:	83 c4 10             	add    $0x10,%esp
        for (i = CRT_SIZE - CRT_COLS; i < CRT_SIZE; i ++) {
  1011e4:	c7 45 f4 80 07 00 00 	movl   $0x780,-0xc(%ebp)
  1011eb:	eb 15                	jmp    101202 <cga_putc+0x12e>
            crt_buf[i] = 0x0700 | ' ';
  1011ed:	a1 80 7e 11 00       	mov    0x117e80,%eax
  1011f2:	8b 55 f4             	mov    -0xc(%ebp),%edx
  1011f5:	01 d2                	add    %edx,%edx
  1011f7:	01 d0                	add    %edx,%eax
  1011f9:	66 c7 00 20 07       	movw   $0x720,(%eax)

    // What is the purpose of this?
    if (crt_pos >= CRT_SIZE) {
        int i;
        memmove(crt_buf, crt_buf + CRT_COLS, (CRT_SIZE - CRT_COLS) * sizeof(uint16_t));
        for (i = CRT_SIZE - CRT_COLS; i < CRT_SIZE; i ++) {
  1011fe:	83 45 f4 01          	addl   $0x1,-0xc(%ebp)
  101202:	81 7d f4 cf 07 00 00 	cmpl   $0x7cf,-0xc(%ebp)
  101209:	7e e2                	jle    1011ed <cga_putc+0x119>
            crt_buf[i] = 0x0700 | ' ';
        }
        crt_pos -= CRT_COLS;
  10120b:	0f b7 05 84 7e 11 00 	movzwl 0x117e84,%eax
  101212:	83 e8 50             	sub    $0x50,%eax
  101215:	66 a3 84 7e 11 00    	mov    %ax,0x117e84
    }

    // move that little blinky thing
    outb(addr_6845, 14);
  10121b:	0f b7 05 86 7e 11 00 	movzwl 0x117e86,%eax
  101222:	0f b7 c0             	movzwl %ax,%eax
  101225:	66 89 45 f2          	mov    %ax,-0xe(%ebp)
  101229:	c6 45 e8 0e          	movb   $0xe,-0x18(%ebp)
  10122d:	0f b6 45 e8          	movzbl -0x18(%ebp),%eax
  101231:	0f b7 55 f2          	movzwl -0xe(%ebp),%edx
  101235:	ee                   	out    %al,(%dx)
    outb(addr_6845 + 1, crt_pos >> 8);
  101236:	0f b7 05 84 7e 11 00 	movzwl 0x117e84,%eax
  10123d:	66 c1 e8 08          	shr    $0x8,%ax
  101241:	0f b6 c0             	movzbl %al,%eax
  101244:	0f b7 15 86 7e 11 00 	movzwl 0x117e86,%edx
  10124b:	83 c2 01             	add    $0x1,%edx
  10124e:	0f b7 d2             	movzwl %dx,%edx
  101251:	66 89 55 f0          	mov    %dx,-0x10(%ebp)
  101255:	88 45 e9             	mov    %al,-0x17(%ebp)
  101258:	0f b6 45 e9          	movzbl -0x17(%ebp),%eax
  10125c:	0f b7 55 f0          	movzwl -0x10(%ebp),%edx
  101260:	ee                   	out    %al,(%dx)
    outb(addr_6845, 15);
  101261:	0f b7 05 86 7e 11 00 	movzwl 0x117e86,%eax
  101268:	0f b7 c0             	movzwl %ax,%eax
  10126b:	66 89 45 ee          	mov    %ax,-0x12(%ebp)
  10126f:	c6 45 ea 0f          	movb   $0xf,-0x16(%ebp)
  101273:	0f b6 45 ea          	movzbl -0x16(%ebp),%eax
  101277:	0f b7 55 ee          	movzwl -0x12(%ebp),%edx
  10127b:	ee                   	out    %al,(%dx)
    outb(addr_6845 + 1, crt_pos);
  10127c:	0f b7 05 84 7e 11 00 	movzwl 0x117e84,%eax
  101283:	0f b6 c0             	movzbl %al,%eax
  101286:	0f b7 15 86 7e 11 00 	movzwl 0x117e86,%edx
  10128d:	83 c2 01             	add    $0x1,%edx
  101290:	0f b7 d2             	movzwl %dx,%edx
  101293:	66 89 55 ec          	mov    %dx,-0x14(%ebp)
  101297:	88 45 eb             	mov    %al,-0x15(%ebp)
  10129a:	0f b6 45 eb          	movzbl -0x15(%ebp),%eax
  10129e:	0f b7 55 ec          	movzwl -0x14(%ebp),%edx
  1012a2:	ee                   	out    %al,(%dx)
}
  1012a3:	90                   	nop
  1012a4:	8b 5d fc             	mov    -0x4(%ebp),%ebx
  1012a7:	c9                   	leave  
  1012a8:	c3                   	ret    

001012a9 <serial_putc_sub>:

static void
serial_putc_sub(int c) {
  1012a9:	55                   	push   %ebp
  1012aa:	89 e5                	mov    %esp,%ebp
  1012ac:	83 ec 10             	sub    $0x10,%esp
    int i;
    for (i = 0; !(inb(COM1 + COM_LSR) & COM_LSR_TXRDY) && i < 12800; i ++) {
  1012af:	c7 45 fc 00 00 00 00 	movl   $0x0,-0x4(%ebp)
  1012b6:	eb 09                	jmp    1012c1 <serial_putc_sub+0x18>
        delay();
  1012b8:	e8 51 fb ff ff       	call   100e0e <delay>
}

static void
serial_putc_sub(int c) {
    int i;
    for (i = 0; !(inb(COM1 + COM_LSR) & COM_LSR_TXRDY) && i < 12800; i ++) {
  1012bd:	83 45 fc 01          	addl   $0x1,-0x4(%ebp)
  1012c1:	66 c7 45 f8 fd 03    	movw   $0x3fd,-0x8(%ebp)
static inline void invlpg(void *addr) __attribute__((always_inline));

static inline uint8_t
inb(uint16_t port) {
    uint8_t data;
    asm volatile ("inb %1, %0" : "=a" (data) : "d" (port) : "memory");
  1012c7:	0f b7 45 f8          	movzwl -0x8(%ebp),%eax
  1012cb:	89 c2                	mov    %eax,%edx
  1012cd:	ec                   	in     (%dx),%al
  1012ce:	88 45 f7             	mov    %al,-0x9(%ebp)
    return data;
  1012d1:	0f b6 45 f7          	movzbl -0x9(%ebp),%eax
  1012d5:	0f b6 c0             	movzbl %al,%eax
  1012d8:	83 e0 20             	and    $0x20,%eax
  1012db:	85 c0                	test   %eax,%eax
  1012dd:	75 09                	jne    1012e8 <serial_putc_sub+0x3f>
  1012df:	81 7d fc ff 31 00 00 	cmpl   $0x31ff,-0x4(%ebp)
  1012e6:	7e d0                	jle    1012b8 <serial_putc_sub+0xf>
        delay();
    }
    outb(COM1 + COM_TX, c);
  1012e8:	8b 45 08             	mov    0x8(%ebp),%eax
  1012eb:	0f b6 c0             	movzbl %al,%eax
  1012ee:	66 c7 45 fa f8 03    	movw   $0x3f8,-0x6(%ebp)
  1012f4:	88 45 f6             	mov    %al,-0xa(%ebp)
        : "memory", "cc");
}

static inline void
outb(uint16_t port, uint8_t data) {
    asm volatile ("outb %0, %1" :: "a" (data), "d" (port) : "memory");
  1012f7:	0f b6 45 f6          	movzbl -0xa(%ebp),%eax
  1012fb:	0f b7 55 fa          	movzwl -0x6(%ebp),%edx
  1012ff:	ee                   	out    %al,(%dx)
}
  101300:	90                   	nop
  101301:	c9                   	leave  
  101302:	c3                   	ret    

00101303 <serial_putc>:

/* serial_putc - print character to serial port */
static void
serial_putc(int c) {
  101303:	55                   	push   %ebp
  101304:	89 e5                	mov    %esp,%ebp
    if (c != '\b') {
  101306:	83 7d 08 08          	cmpl   $0x8,0x8(%ebp)
  10130a:	74 0d                	je     101319 <serial_putc+0x16>
        serial_putc_sub(c);
  10130c:	ff 75 08             	pushl  0x8(%ebp)
  10130f:	e8 95 ff ff ff       	call   1012a9 <serial_putc_sub>
  101314:	83 c4 04             	add    $0x4,%esp
    else {
        serial_putc_sub('\b');
        serial_putc_sub(' ');
        serial_putc_sub('\b');
    }
}
  101317:	eb 1e                	jmp    101337 <serial_putc+0x34>
serial_putc(int c) {
    if (c != '\b') {
        serial_putc_sub(c);
    }
    else {
        serial_putc_sub('\b');
  101319:	6a 08                	push   $0x8
  10131b:	e8 89 ff ff ff       	call   1012a9 <serial_putc_sub>
  101320:	83 c4 04             	add    $0x4,%esp
        serial_putc_sub(' ');
  101323:	6a 20                	push   $0x20
  101325:	e8 7f ff ff ff       	call   1012a9 <serial_putc_sub>
  10132a:	83 c4 04             	add    $0x4,%esp
        serial_putc_sub('\b');
  10132d:	6a 08                	push   $0x8
  10132f:	e8 75 ff ff ff       	call   1012a9 <serial_putc_sub>
  101334:	83 c4 04             	add    $0x4,%esp
    }
}
  101337:	90                   	nop
  101338:	c9                   	leave  
  101339:	c3                   	ret    

0010133a <cons_intr>:
/* *
 * cons_intr - called by device interrupt routines to feed input
 * characters into the circular console input buffer.
 * */
static void
cons_intr(int (*proc)(void)) {
  10133a:	55                   	push   %ebp
  10133b:	89 e5                	mov    %esp,%ebp
  10133d:	83 ec 18             	sub    $0x18,%esp
    int c;
    while ((c = (*proc)()) != -1) {
  101340:	eb 33                	jmp    101375 <cons_intr+0x3b>
        if (c != 0) {
  101342:	83 7d f4 00          	cmpl   $0x0,-0xc(%ebp)
  101346:	74 2d                	je     101375 <cons_intr+0x3b>
            cons.buf[cons.wpos ++] = c;
  101348:	a1 a4 80 11 00       	mov    0x1180a4,%eax
  10134d:	8d 50 01             	lea    0x1(%eax),%edx
  101350:	89 15 a4 80 11 00    	mov    %edx,0x1180a4
  101356:	8b 55 f4             	mov    -0xc(%ebp),%edx
  101359:	88 90 a0 7e 11 00    	mov    %dl,0x117ea0(%eax)
            if (cons.wpos == CONSBUFSIZE) {
  10135f:	a1 a4 80 11 00       	mov    0x1180a4,%eax
  101364:	3d 00 02 00 00       	cmp    $0x200,%eax
  101369:	75 0a                	jne    101375 <cons_intr+0x3b>
                cons.wpos = 0;
  10136b:	c7 05 a4 80 11 00 00 	movl   $0x0,0x1180a4
  101372:	00 00 00 
 * characters into the circular console input buffer.
 * */
static void
cons_intr(int (*proc)(void)) {
    int c;
    while ((c = (*proc)()) != -1) {
  101375:	8b 45 08             	mov    0x8(%ebp),%eax
  101378:	ff d0                	call   *%eax
  10137a:	89 45 f4             	mov    %eax,-0xc(%ebp)
  10137d:	83 7d f4 ff          	cmpl   $0xffffffff,-0xc(%ebp)
  101381:	75 bf                	jne    101342 <cons_intr+0x8>
            if (cons.wpos == CONSBUFSIZE) {
                cons.wpos = 0;
            }
        }
    }
}
  101383:	90                   	nop
  101384:	c9                   	leave  
  101385:	c3                   	ret    

00101386 <serial_proc_data>:

/* serial_proc_data - get data from serial port */
static int
serial_proc_data(void) {
  101386:	55                   	push   %ebp
  101387:	89 e5                	mov    %esp,%ebp
  101389:	83 ec 10             	sub    $0x10,%esp
  10138c:	66 c7 45 f8 fd 03    	movw   $0x3fd,-0x8(%ebp)
static inline void invlpg(void *addr) __attribute__((always_inline));

static inline uint8_t
inb(uint16_t port) {
    uint8_t data;
    asm volatile ("inb %1, %0" : "=a" (data) : "d" (port) : "memory");
  101392:	0f b7 45 f8          	movzwl -0x8(%ebp),%eax
  101396:	89 c2                	mov    %eax,%edx
  101398:	ec                   	in     (%dx),%al
  101399:	88 45 f7             	mov    %al,-0x9(%ebp)
    return data;
  10139c:	0f b6 45 f7          	movzbl -0x9(%ebp),%eax
    if (!(inb(COM1 + COM_LSR) & COM_LSR_DATA)) {
  1013a0:	0f b6 c0             	movzbl %al,%eax
  1013a3:	83 e0 01             	and    $0x1,%eax
  1013a6:	85 c0                	test   %eax,%eax
  1013a8:	75 07                	jne    1013b1 <serial_proc_data+0x2b>
        return -1;
  1013aa:	b8 ff ff ff ff       	mov    $0xffffffff,%eax
  1013af:	eb 2a                	jmp    1013db <serial_proc_data+0x55>
  1013b1:	66 c7 45 fa f8 03    	movw   $0x3f8,-0x6(%ebp)
static inline void invlpg(void *addr) __attribute__((always_inline));

static inline uint8_t
inb(uint16_t port) {
    uint8_t data;
    asm volatile ("inb %1, %0" : "=a" (data) : "d" (port) : "memory");
  1013b7:	0f b7 45 fa          	movzwl -0x6(%ebp),%eax
  1013bb:	89 c2                	mov    %eax,%edx
  1013bd:	ec                   	in     (%dx),%al
  1013be:	88 45 f6             	mov    %al,-0xa(%ebp)
    return data;
  1013c1:	0f b6 45 f6          	movzbl -0xa(%ebp),%eax
    }
    int c = inb(COM1 + COM_RX);
  1013c5:	0f b6 c0             	movzbl %al,%eax
  1013c8:	89 45 fc             	mov    %eax,-0x4(%ebp)
    if (c == 127) {
  1013cb:	83 7d fc 7f          	cmpl   $0x7f,-0x4(%ebp)
  1013cf:	75 07                	jne    1013d8 <serial_proc_data+0x52>
        c = '\b';
  1013d1:	c7 45 fc 08 00 00 00 	movl   $0x8,-0x4(%ebp)
    }
    return c;
  1013d8:	8b 45 fc             	mov    -0x4(%ebp),%eax
}
  1013db:	c9                   	leave  
  1013dc:	c3                   	ret    

001013dd <serial_intr>:

/* serial_intr - try to feed input characters from serial port */
void
serial_intr(void) {
  1013dd:	55                   	push   %ebp
  1013de:	89 e5                	mov    %esp,%ebp
  1013e0:	83 ec 08             	sub    $0x8,%esp
    if (serial_exists) {
  1013e3:	a1 88 7e 11 00       	mov    0x117e88,%eax
  1013e8:	85 c0                	test   %eax,%eax
  1013ea:	74 10                	je     1013fc <serial_intr+0x1f>
        cons_intr(serial_proc_data);
  1013ec:	83 ec 0c             	sub    $0xc,%esp
  1013ef:	68 86 13 10 00       	push   $0x101386
  1013f4:	e8 41 ff ff ff       	call   10133a <cons_intr>
  1013f9:	83 c4 10             	add    $0x10,%esp
    }
}
  1013fc:	90                   	nop
  1013fd:	c9                   	leave  
  1013fe:	c3                   	ret    

001013ff <kbd_proc_data>:
 *
 * The kbd_proc_data() function gets data from the keyboard.
 * If we finish a character, return it, else 0. And return -1 if no data.
 * */
static int
kbd_proc_data(void) {
  1013ff:	55                   	push   %ebp
  101400:	89 e5                	mov    %esp,%ebp
  101402:	83 ec 18             	sub    $0x18,%esp
  101405:	66 c7 45 ec 64 00    	movw   $0x64,-0x14(%ebp)
static inline void invlpg(void *addr) __attribute__((always_inline));

static inline uint8_t
inb(uint16_t port) {
    uint8_t data;
    asm volatile ("inb %1, %0" : "=a" (data) : "d" (port) : "memory");
  10140b:	0f b7 45 ec          	movzwl -0x14(%ebp),%eax
  10140f:	89 c2                	mov    %eax,%edx
  101411:	ec                   	in     (%dx),%al
  101412:	88 45 eb             	mov    %al,-0x15(%ebp)
    return data;
  101415:	0f b6 45 eb          	movzbl -0x15(%ebp),%eax
    int c;
    uint8_t data;
    static uint32_t shift;

    if ((inb(KBSTATP) & KBS_DIB) == 0) {
  101419:	0f b6 c0             	movzbl %al,%eax
  10141c:	83 e0 01             	and    $0x1,%eax
  10141f:	85 c0                	test   %eax,%eax
  101421:	75 0a                	jne    10142d <kbd_proc_data+0x2e>
        return -1;
  101423:	b8 ff ff ff ff       	mov    $0xffffffff,%eax
  101428:	e9 5d 01 00 00       	jmp    10158a <kbd_proc_data+0x18b>
  10142d:	66 c7 45 f0 60 00    	movw   $0x60,-0x10(%ebp)
static inline void invlpg(void *addr) __attribute__((always_inline));

static inline uint8_t
inb(uint16_t port) {
    uint8_t data;
    asm volatile ("inb %1, %0" : "=a" (data) : "d" (port) : "memory");
  101433:	0f b7 45 f0          	movzwl -0x10(%ebp),%eax
  101437:	89 c2                	mov    %eax,%edx
  101439:	ec                   	in     (%dx),%al
  10143a:	88 45 ea             	mov    %al,-0x16(%ebp)
    return data;
  10143d:	0f b6 45 ea          	movzbl -0x16(%ebp),%eax
    }

    data = inb(KBDATAP);
  101441:	88 45 f3             	mov    %al,-0xd(%ebp)

    if (data == 0xE0) {
  101444:	80 7d f3 e0          	cmpb   $0xe0,-0xd(%ebp)
  101448:	75 17                	jne    101461 <kbd_proc_data+0x62>
        // E0 escape character
        shift |= E0ESC;
  10144a:	a1 a8 80 11 00       	mov    0x1180a8,%eax
  10144f:	83 c8 40             	or     $0x40,%eax
  101452:	a3 a8 80 11 00       	mov    %eax,0x1180a8
        return 0;
  101457:	b8 00 00 00 00       	mov    $0x0,%eax
  10145c:	e9 29 01 00 00       	jmp    10158a <kbd_proc_data+0x18b>
    } else if (data & 0x80) {
  101461:	0f b6 45 f3          	movzbl -0xd(%ebp),%eax
  101465:	84 c0                	test   %al,%al
  101467:	79 47                	jns    1014b0 <kbd_proc_data+0xb1>
        // Key released
        data = (shift & E0ESC ? data : data & 0x7F);
  101469:	a1 a8 80 11 00       	mov    0x1180a8,%eax
  10146e:	83 e0 40             	and    $0x40,%eax
  101471:	85 c0                	test   %eax,%eax
  101473:	75 09                	jne    10147e <kbd_proc_data+0x7f>
  101475:	0f b6 45 f3          	movzbl -0xd(%ebp),%eax
  101479:	83 e0 7f             	and    $0x7f,%eax
  10147c:	eb 04                	jmp    101482 <kbd_proc_data+0x83>
  10147e:	0f b6 45 f3          	movzbl -0xd(%ebp),%eax
  101482:	88 45 f3             	mov    %al,-0xd(%ebp)
        shift &= ~(shiftcode[data] | E0ESC);
  101485:	0f b6 45 f3          	movzbl -0xd(%ebp),%eax
  101489:	0f b6 80 60 70 11 00 	movzbl 0x117060(%eax),%eax
  101490:	83 c8 40             	or     $0x40,%eax
  101493:	0f b6 c0             	movzbl %al,%eax
  101496:	f7 d0                	not    %eax
  101498:	89 c2                	mov    %eax,%edx
  10149a:	a1 a8 80 11 00       	mov    0x1180a8,%eax
  10149f:	21 d0                	and    %edx,%eax
  1014a1:	a3 a8 80 11 00       	mov    %eax,0x1180a8
        return 0;
  1014a6:	b8 00 00 00 00       	mov    $0x0,%eax
  1014ab:	e9 da 00 00 00       	jmp    10158a <kbd_proc_data+0x18b>
    } else if (shift & E0ESC) {
  1014b0:	a1 a8 80 11 00       	mov    0x1180a8,%eax
  1014b5:	83 e0 40             	and    $0x40,%eax
  1014b8:	85 c0                	test   %eax,%eax
  1014ba:	74 11                	je     1014cd <kbd_proc_data+0xce>
        // Last character was an E0 escape; or with 0x80
        data |= 0x80;
  1014bc:	80 4d f3 80          	orb    $0x80,-0xd(%ebp)
        shift &= ~E0ESC;
  1014c0:	a1 a8 80 11 00       	mov    0x1180a8,%eax
  1014c5:	83 e0 bf             	and    $0xffffffbf,%eax
  1014c8:	a3 a8 80 11 00       	mov    %eax,0x1180a8
    }

    shift |= shiftcode[data];
  1014cd:	0f b6 45 f3          	movzbl -0xd(%ebp),%eax
  1014d1:	0f b6 80 60 70 11 00 	movzbl 0x117060(%eax),%eax
  1014d8:	0f b6 d0             	movzbl %al,%edx
  1014db:	a1 a8 80 11 00       	mov    0x1180a8,%eax
  1014e0:	09 d0                	or     %edx,%eax
  1014e2:	a3 a8 80 11 00       	mov    %eax,0x1180a8
    shift ^= togglecode[data];
  1014e7:	0f b6 45 f3          	movzbl -0xd(%ebp),%eax
  1014eb:	0f b6 80 60 71 11 00 	movzbl 0x117160(%eax),%eax
  1014f2:	0f b6 d0             	movzbl %al,%edx
  1014f5:	a1 a8 80 11 00       	mov    0x1180a8,%eax
  1014fa:	31 d0                	xor    %edx,%eax
  1014fc:	a3 a8 80 11 00       	mov    %eax,0x1180a8

    c = charcode[shift & (CTL | SHIFT)][data];
  101501:	a1 a8 80 11 00       	mov    0x1180a8,%eax
  101506:	83 e0 03             	and    $0x3,%eax
  101509:	8b 14 85 60 75 11 00 	mov    0x117560(,%eax,4),%edx
  101510:	0f b6 45 f3          	movzbl -0xd(%ebp),%eax
  101514:	01 d0                	add    %edx,%eax
  101516:	0f b6 00             	movzbl (%eax),%eax
  101519:	0f b6 c0             	movzbl %al,%eax
  10151c:	89 45 f4             	mov    %eax,-0xc(%ebp)
    if (shift & CAPSLOCK) {
  10151f:	a1 a8 80 11 00       	mov    0x1180a8,%eax
  101524:	83 e0 08             	and    $0x8,%eax
  101527:	85 c0                	test   %eax,%eax
  101529:	74 22                	je     10154d <kbd_proc_data+0x14e>
        if ('a' <= c && c <= 'z')
  10152b:	83 7d f4 60          	cmpl   $0x60,-0xc(%ebp)
  10152f:	7e 0c                	jle    10153d <kbd_proc_data+0x13e>
  101531:	83 7d f4 7a          	cmpl   $0x7a,-0xc(%ebp)
  101535:	7f 06                	jg     10153d <kbd_proc_data+0x13e>
            c += 'A' - 'a';
  101537:	83 6d f4 20          	subl   $0x20,-0xc(%ebp)
  10153b:	eb 10                	jmp    10154d <kbd_proc_data+0x14e>
        else if ('A' <= c && c <= 'Z')
  10153d:	83 7d f4 40          	cmpl   $0x40,-0xc(%ebp)
  101541:	7e 0a                	jle    10154d <kbd_proc_data+0x14e>
  101543:	83 7d f4 5a          	cmpl   $0x5a,-0xc(%ebp)
  101547:	7f 04                	jg     10154d <kbd_proc_data+0x14e>
            c += 'a' - 'A';
  101549:	83 45 f4 20          	addl   $0x20,-0xc(%ebp)
    }

    // Process special keys
    // Ctrl-Alt-Del: reboot
    if (!(~shift & (CTL | ALT)) && c == KEY_DEL) {
  10154d:	a1 a8 80 11 00       	mov    0x1180a8,%eax
  101552:	f7 d0                	not    %eax
  101554:	83 e0 06             	and    $0x6,%eax
  101557:	85 c0                	test   %eax,%eax
  101559:	75 2c                	jne    101587 <kbd_proc_data+0x188>
  10155b:	81 7d f4 e9 00 00 00 	cmpl   $0xe9,-0xc(%ebp)
  101562:	75 23                	jne    101587 <kbd_proc_data+0x188>
        cprintf("Rebooting!\n");
  101564:	83 ec 0c             	sub    $0xc,%esp
  101567:	68 51 5f 10 00       	push   $0x105f51
  10156c:	e8 fe ec ff ff       	call   10026f <cprintf>
  101571:	83 c4 10             	add    $0x10,%esp
  101574:	66 c7 45 ee 92 00    	movw   $0x92,-0x12(%ebp)
  10157a:	c6 45 e9 03          	movb   $0x3,-0x17(%ebp)
        : "memory", "cc");
}

static inline void
outb(uint16_t port, uint8_t data) {
    asm volatile ("outb %0, %1" :: "a" (data), "d" (port) : "memory");
  10157e:	0f b6 45 e9          	movzbl -0x17(%ebp),%eax
  101582:	0f b7 55 ee          	movzwl -0x12(%ebp),%edx
  101586:	ee                   	out    %al,(%dx)
        outb(0x92, 0x3); // courtesy of Chris Frost
    }
    return c;
  101587:	8b 45 f4             	mov    -0xc(%ebp),%eax
}
  10158a:	c9                   	leave  
  10158b:	c3                   	ret    

0010158c <kbd_intr>:

/* kbd_intr - try to feed input characters from keyboard */
static void
kbd_intr(void) {
  10158c:	55                   	push   %ebp
  10158d:	89 e5                	mov    %esp,%ebp
  10158f:	83 ec 08             	sub    $0x8,%esp
    cons_intr(kbd_proc_data);
  101592:	83 ec 0c             	sub    $0xc,%esp
  101595:	68 ff 13 10 00       	push   $0x1013ff
  10159a:	e8 9b fd ff ff       	call   10133a <cons_intr>
  10159f:	83 c4 10             	add    $0x10,%esp
}
  1015a2:	90                   	nop
  1015a3:	c9                   	leave  
  1015a4:	c3                   	ret    

001015a5 <kbd_init>:

static void
kbd_init(void) {
  1015a5:	55                   	push   %ebp
  1015a6:	89 e5                	mov    %esp,%ebp
  1015a8:	83 ec 08             	sub    $0x8,%esp
    // drain the kbd buffer
    kbd_intr();
  1015ab:	e8 dc ff ff ff       	call   10158c <kbd_intr>
    pic_enable(IRQ_KBD);
  1015b0:	83 ec 0c             	sub    $0xc,%esp
  1015b3:	6a 01                	push   $0x1
  1015b5:	e8 4b 01 00 00       	call   101705 <pic_enable>
  1015ba:	83 c4 10             	add    $0x10,%esp
}
  1015bd:	90                   	nop
  1015be:	c9                   	leave  
  1015bf:	c3                   	ret    

001015c0 <cons_init>:

/* cons_init - initializes the console devices */
void
cons_init(void) {
  1015c0:	55                   	push   %ebp
  1015c1:	89 e5                	mov    %esp,%ebp
  1015c3:	83 ec 08             	sub    $0x8,%esp
    cga_init();
  1015c6:	e8 8c f8 ff ff       	call   100e57 <cga_init>
    serial_init();
  1015cb:	e8 6e f9 ff ff       	call   100f3e <serial_init>
    kbd_init();
  1015d0:	e8 d0 ff ff ff       	call   1015a5 <kbd_init>
    if (!serial_exists) {
  1015d5:	a1 88 7e 11 00       	mov    0x117e88,%eax
  1015da:	85 c0                	test   %eax,%eax
  1015dc:	75 10                	jne    1015ee <cons_init+0x2e>
        cprintf("serial port does not exist!!\n");
  1015de:	83 ec 0c             	sub    $0xc,%esp
  1015e1:	68 5d 5f 10 00       	push   $0x105f5d
  1015e6:	e8 84 ec ff ff       	call   10026f <cprintf>
  1015eb:	83 c4 10             	add    $0x10,%esp
    }
}
  1015ee:	90                   	nop
  1015ef:	c9                   	leave  
  1015f0:	c3                   	ret    

001015f1 <cons_putc>:

/* cons_putc - print a single character @c to console devices */
void
cons_putc(int c) {
  1015f1:	55                   	push   %ebp
  1015f2:	89 e5                	mov    %esp,%ebp
  1015f4:	83 ec 18             	sub    $0x18,%esp
    bool intr_flag;
    local_intr_save(intr_flag);
  1015f7:	e8 d4 f7 ff ff       	call   100dd0 <__intr_save>
  1015fc:	89 45 f4             	mov    %eax,-0xc(%ebp)
    {
        lpt_putc(c);
  1015ff:	83 ec 0c             	sub    $0xc,%esp
  101602:	ff 75 08             	pushl  0x8(%ebp)
  101605:	e8 93 fa ff ff       	call   10109d <lpt_putc>
  10160a:	83 c4 10             	add    $0x10,%esp
        cga_putc(c);
  10160d:	83 ec 0c             	sub    $0xc,%esp
  101610:	ff 75 08             	pushl  0x8(%ebp)
  101613:	e8 bc fa ff ff       	call   1010d4 <cga_putc>
  101618:	83 c4 10             	add    $0x10,%esp
        serial_putc(c);
  10161b:	83 ec 0c             	sub    $0xc,%esp
  10161e:	ff 75 08             	pushl  0x8(%ebp)
  101621:	e8 dd fc ff ff       	call   101303 <serial_putc>
  101626:	83 c4 10             	add    $0x10,%esp
    }
    local_intr_restore(intr_flag);
  101629:	83 ec 0c             	sub    $0xc,%esp
  10162c:	ff 75 f4             	pushl  -0xc(%ebp)
  10162f:	e8 c6 f7 ff ff       	call   100dfa <__intr_restore>
  101634:	83 c4 10             	add    $0x10,%esp
}
  101637:	90                   	nop
  101638:	c9                   	leave  
  101639:	c3                   	ret    

0010163a <cons_getc>:
/* *
 * cons_getc - return the next input character from console,
 * or 0 if none waiting.
 * */
int
cons_getc(void) {
  10163a:	55                   	push   %ebp
  10163b:	89 e5                	mov    %esp,%ebp
  10163d:	83 ec 18             	sub    $0x18,%esp
    int c = 0;
  101640:	c7 45 f4 00 00 00 00 	movl   $0x0,-0xc(%ebp)
    bool intr_flag;
    local_intr_save(intr_flag);
  101647:	e8 84 f7 ff ff       	call   100dd0 <__intr_save>
  10164c:	89 45 f0             	mov    %eax,-0x10(%ebp)
    {
        // poll for any pending input characters,
        // so that this function works even when interrupts are disabled
        // (e.g., when called from the kernel monitor).
        serial_intr();
  10164f:	e8 89 fd ff ff       	call   1013dd <serial_intr>
        kbd_intr();
  101654:	e8 33 ff ff ff       	call   10158c <kbd_intr>

        // grab the next character from the input buffer.
        if (cons.rpos != cons.wpos) {
  101659:	8b 15 a0 80 11 00    	mov    0x1180a0,%edx
  10165f:	a1 a4 80 11 00       	mov    0x1180a4,%eax
  101664:	39 c2                	cmp    %eax,%edx
  101666:	74 31                	je     101699 <cons_getc+0x5f>
            c = cons.buf[cons.rpos ++];
  101668:	a1 a0 80 11 00       	mov    0x1180a0,%eax
  10166d:	8d 50 01             	lea    0x1(%eax),%edx
  101670:	89 15 a0 80 11 00    	mov    %edx,0x1180a0
  101676:	0f b6 80 a0 7e 11 00 	movzbl 0x117ea0(%eax),%eax
  10167d:	0f b6 c0             	movzbl %al,%eax
  101680:	89 45 f4             	mov    %eax,-0xc(%ebp)
            if (cons.rpos == CONSBUFSIZE) {
  101683:	a1 a0 80 11 00       	mov    0x1180a0,%eax
  101688:	3d 00 02 00 00       	cmp    $0x200,%eax
  10168d:	75 0a                	jne    101699 <cons_getc+0x5f>
                cons.rpos = 0;
  10168f:	c7 05 a0 80 11 00 00 	movl   $0x0,0x1180a0
  101696:	00 00 00 
            }
        }
    }
    local_intr_restore(intr_flag);
  101699:	83 ec 0c             	sub    $0xc,%esp
  10169c:	ff 75 f0             	pushl  -0x10(%ebp)
  10169f:	e8 56 f7 ff ff       	call   100dfa <__intr_restore>
  1016a4:	83 c4 10             	add    $0x10,%esp
    return c;
  1016a7:	8b 45 f4             	mov    -0xc(%ebp),%eax
}
  1016aa:	c9                   	leave  
  1016ab:	c3                   	ret    

001016ac <pic_setmask>:
// Initial IRQ mask has interrupt 2 enabled (for slave 8259A).
static uint16_t irq_mask = 0xFFFF & ~(1 << IRQ_SLAVE);
static bool did_init = 0;

static void
pic_setmask(uint16_t mask) {
  1016ac:	55                   	push   %ebp
  1016ad:	89 e5                	mov    %esp,%ebp
  1016af:	83 ec 14             	sub    $0x14,%esp
  1016b2:	8b 45 08             	mov    0x8(%ebp),%eax
  1016b5:	66 89 45 ec          	mov    %ax,-0x14(%ebp)
    irq_mask = mask;
  1016b9:	0f b7 45 ec          	movzwl -0x14(%ebp),%eax
  1016bd:	66 a3 70 75 11 00    	mov    %ax,0x117570
    if (did_init) {
  1016c3:	a1 ac 80 11 00       	mov    0x1180ac,%eax
  1016c8:	85 c0                	test   %eax,%eax
  1016ca:	74 36                	je     101702 <pic_setmask+0x56>
        outb(IO_PIC1 + 1, mask);
  1016cc:	0f b7 45 ec          	movzwl -0x14(%ebp),%eax
  1016d0:	0f b6 c0             	movzbl %al,%eax
  1016d3:	66 c7 45 fe 21 00    	movw   $0x21,-0x2(%ebp)
  1016d9:	88 45 fa             	mov    %al,-0x6(%ebp)
  1016dc:	0f b6 45 fa          	movzbl -0x6(%ebp),%eax
  1016e0:	0f b7 55 fe          	movzwl -0x2(%ebp),%edx
  1016e4:	ee                   	out    %al,(%dx)
        outb(IO_PIC2 + 1, mask >> 8);
  1016e5:	0f b7 45 ec          	movzwl -0x14(%ebp),%eax
  1016e9:	66 c1 e8 08          	shr    $0x8,%ax
  1016ed:	0f b6 c0             	movzbl %al,%eax
  1016f0:	66 c7 45 fc a1 00    	movw   $0xa1,-0x4(%ebp)
  1016f6:	88 45 fb             	mov    %al,-0x5(%ebp)
  1016f9:	0f b6 45 fb          	movzbl -0x5(%ebp),%eax
  1016fd:	0f b7 55 fc          	movzwl -0x4(%ebp),%edx
  101701:	ee                   	out    %al,(%dx)
    }
}
  101702:	90                   	nop
  101703:	c9                   	leave  
  101704:	c3                   	ret    

00101705 <pic_enable>:

void
pic_enable(unsigned int irq) {
  101705:	55                   	push   %ebp
  101706:	89 e5                	mov    %esp,%ebp
    pic_setmask(irq_mask & ~(1 << irq));
  101708:	8b 45 08             	mov    0x8(%ebp),%eax
  10170b:	ba 01 00 00 00       	mov    $0x1,%edx
  101710:	89 c1                	mov    %eax,%ecx
  101712:	d3 e2                	shl    %cl,%edx
  101714:	89 d0                	mov    %edx,%eax
  101716:	f7 d0                	not    %eax
  101718:	89 c2                	mov    %eax,%edx
  10171a:	0f b7 05 70 75 11 00 	movzwl 0x117570,%eax
  101721:	21 d0                	and    %edx,%eax
  101723:	0f b7 c0             	movzwl %ax,%eax
  101726:	50                   	push   %eax
  101727:	e8 80 ff ff ff       	call   1016ac <pic_setmask>
  10172c:	83 c4 04             	add    $0x4,%esp
}
  10172f:	90                   	nop
  101730:	c9                   	leave  
  101731:	c3                   	ret    

00101732 <pic_init>:

/* pic_init - initialize the 8259A interrupt controllers */
void
pic_init(void) {
  101732:	55                   	push   %ebp
  101733:	89 e5                	mov    %esp,%ebp
  101735:	83 ec 30             	sub    $0x30,%esp
    did_init = 1;
  101738:	c7 05 ac 80 11 00 01 	movl   $0x1,0x1180ac
  10173f:	00 00 00 
  101742:	66 c7 45 fe 21 00    	movw   $0x21,-0x2(%ebp)
  101748:	c6 45 d6 ff          	movb   $0xff,-0x2a(%ebp)
  10174c:	0f b6 45 d6          	movzbl -0x2a(%ebp),%eax
  101750:	0f b7 55 fe          	movzwl -0x2(%ebp),%edx
  101754:	ee                   	out    %al,(%dx)
  101755:	66 c7 45 fc a1 00    	movw   $0xa1,-0x4(%ebp)
  10175b:	c6 45 d7 ff          	movb   $0xff,-0x29(%ebp)
  10175f:	0f b6 45 d7          	movzbl -0x29(%ebp),%eax
  101763:	0f b7 55 fc          	movzwl -0x4(%ebp),%edx
  101767:	ee                   	out    %al,(%dx)
  101768:	66 c7 45 fa 20 00    	movw   $0x20,-0x6(%ebp)
  10176e:	c6 45 d8 11          	movb   $0x11,-0x28(%ebp)
  101772:	0f b6 45 d8          	movzbl -0x28(%ebp),%eax
  101776:	0f b7 55 fa          	movzwl -0x6(%ebp),%edx
  10177a:	ee                   	out    %al,(%dx)
  10177b:	66 c7 45 f8 21 00    	movw   $0x21,-0x8(%ebp)
  101781:	c6 45 d9 20          	movb   $0x20,-0x27(%ebp)
  101785:	0f b6 45 d9          	movzbl -0x27(%ebp),%eax
  101789:	0f b7 55 f8          	movzwl -0x8(%ebp),%edx
  10178d:	ee                   	out    %al,(%dx)
  10178e:	66 c7 45 f6 21 00    	movw   $0x21,-0xa(%ebp)
  101794:	c6 45 da 04          	movb   $0x4,-0x26(%ebp)
  101798:	0f b6 45 da          	movzbl -0x26(%ebp),%eax
  10179c:	0f b7 55 f6          	movzwl -0xa(%ebp),%edx
  1017a0:	ee                   	out    %al,(%dx)
  1017a1:	66 c7 45 f4 21 00    	movw   $0x21,-0xc(%ebp)
  1017a7:	c6 45 db 03          	movb   $0x3,-0x25(%ebp)
  1017ab:	0f b6 45 db          	movzbl -0x25(%ebp),%eax
  1017af:	0f b7 55 f4          	movzwl -0xc(%ebp),%edx
  1017b3:	ee                   	out    %al,(%dx)
  1017b4:	66 c7 45 f2 a0 00    	movw   $0xa0,-0xe(%ebp)
  1017ba:	c6 45 dc 11          	movb   $0x11,-0x24(%ebp)
  1017be:	0f b6 45 dc          	movzbl -0x24(%ebp),%eax
  1017c2:	0f b7 55 f2          	movzwl -0xe(%ebp),%edx
  1017c6:	ee                   	out    %al,(%dx)
  1017c7:	66 c7 45 f0 a1 00    	movw   $0xa1,-0x10(%ebp)
  1017cd:	c6 45 dd 28          	movb   $0x28,-0x23(%ebp)
  1017d1:	0f b6 45 dd          	movzbl -0x23(%ebp),%eax
  1017d5:	0f b7 55 f0          	movzwl -0x10(%ebp),%edx
  1017d9:	ee                   	out    %al,(%dx)
  1017da:	66 c7 45 ee a1 00    	movw   $0xa1,-0x12(%ebp)
  1017e0:	c6 45 de 02          	movb   $0x2,-0x22(%ebp)
  1017e4:	0f b6 45 de          	movzbl -0x22(%ebp),%eax
  1017e8:	0f b7 55 ee          	movzwl -0x12(%ebp),%edx
  1017ec:	ee                   	out    %al,(%dx)
  1017ed:	66 c7 45 ec a1 00    	movw   $0xa1,-0x14(%ebp)
  1017f3:	c6 45 df 03          	movb   $0x3,-0x21(%ebp)
  1017f7:	0f b6 45 df          	movzbl -0x21(%ebp),%eax
  1017fb:	0f b7 55 ec          	movzwl -0x14(%ebp),%edx
  1017ff:	ee                   	out    %al,(%dx)
  101800:	66 c7 45 ea 20 00    	movw   $0x20,-0x16(%ebp)
  101806:	c6 45 e0 68          	movb   $0x68,-0x20(%ebp)
  10180a:	0f b6 45 e0          	movzbl -0x20(%ebp),%eax
  10180e:	0f b7 55 ea          	movzwl -0x16(%ebp),%edx
  101812:	ee                   	out    %al,(%dx)
  101813:	66 c7 45 e8 20 00    	movw   $0x20,-0x18(%ebp)
  101819:	c6 45 e1 0a          	movb   $0xa,-0x1f(%ebp)
  10181d:	0f b6 45 e1          	movzbl -0x1f(%ebp),%eax
  101821:	0f b7 55 e8          	movzwl -0x18(%ebp),%edx
  101825:	ee                   	out    %al,(%dx)
  101826:	66 c7 45 e6 a0 00    	movw   $0xa0,-0x1a(%ebp)
  10182c:	c6 45 e2 68          	movb   $0x68,-0x1e(%ebp)
  101830:	0f b6 45 e2          	movzbl -0x1e(%ebp),%eax
  101834:	0f b7 55 e6          	movzwl -0x1a(%ebp),%edx
  101838:	ee                   	out    %al,(%dx)
  101839:	66 c7 45 e4 a0 00    	movw   $0xa0,-0x1c(%ebp)
  10183f:	c6 45 e3 0a          	movb   $0xa,-0x1d(%ebp)
  101843:	0f b6 45 e3          	movzbl -0x1d(%ebp),%eax
  101847:	0f b7 55 e4          	movzwl -0x1c(%ebp),%edx
  10184b:	ee                   	out    %al,(%dx)
    outb(IO_PIC1, 0x0a);    // read IRR by default

    outb(IO_PIC2, 0x68);    // OCW3
    outb(IO_PIC2, 0x0a);    // OCW3

    if (irq_mask != 0xFFFF) {
  10184c:	0f b7 05 70 75 11 00 	movzwl 0x117570,%eax
  101853:	66 83 f8 ff          	cmp    $0xffff,%ax
  101857:	74 13                	je     10186c <pic_init+0x13a>
        pic_setmask(irq_mask);
  101859:	0f b7 05 70 75 11 00 	movzwl 0x117570,%eax
  101860:	0f b7 c0             	movzwl %ax,%eax
  101863:	50                   	push   %eax
  101864:	e8 43 fe ff ff       	call   1016ac <pic_setmask>
  101869:	83 c4 04             	add    $0x4,%esp
    }
}
  10186c:	90                   	nop
  10186d:	c9                   	leave  
  10186e:	c3                   	ret    

0010186f <intr_enable>:
#include <x86.h>
#include <intr.h>

/* intr_enable - enable irq interrupt */
void
intr_enable(void) {
  10186f:	55                   	push   %ebp
  101870:	89 e5                	mov    %esp,%ebp
    asm volatile ("lidt (%0)" :: "r" (pd) : "memory");
}

static inline void
sti(void) {
    asm volatile ("sti");
  101872:	fb                   	sti    
    sti();
}
  101873:	90                   	nop
  101874:	5d                   	pop    %ebp
  101875:	c3                   	ret    

00101876 <intr_disable>:

/* intr_disable - disable irq interrupt */
void
intr_disable(void) {
  101876:	55                   	push   %ebp
  101877:	89 e5                	mov    %esp,%ebp
}

static inline void
cli(void) {
    asm volatile ("cli" ::: "memory");
  101879:	fa                   	cli    
    cli();
}
  10187a:	90                   	nop
  10187b:	5d                   	pop    %ebp
  10187c:	c3                   	ret    

0010187d <print_ticks>:
#include <console.h>
#include <kdebug.h>

#define TICK_NUM 100

static void print_ticks() {
  10187d:	55                   	push   %ebp
  10187e:	89 e5                	mov    %esp,%ebp
  101880:	83 ec 08             	sub    $0x8,%esp
    cprintf("%d ticks\n",TICK_NUM);
  101883:	83 ec 08             	sub    $0x8,%esp
  101886:	6a 64                	push   $0x64
  101888:	68 80 5f 10 00       	push   $0x105f80
  10188d:	e8 dd e9 ff ff       	call   10026f <cprintf>
  101892:	83 c4 10             	add    $0x10,%esp
#ifdef DEBUG_GRADE
    cprintf("End of Test.\n");
    panic("EOT: kernel seems ok.");
#endif
}
  101895:	90                   	nop
  101896:	c9                   	leave  
  101897:	c3                   	ret    

00101898 <idt_init>:
    sizeof(idt) - 1, (uintptr_t)idt
};

/* idt_init - initialize IDT to each of the entry points in kern/trap/vectors.S */
void
idt_init(void) {
  101898:	55                   	push   %ebp
  101899:	89 e5                	mov    %esp,%ebp
  10189b:	83 ec 10             	sub    $0x10,%esp
      */
    // 1. get vectors
    extern uintptr_t __vectors[];

    // 2. setup entries
    for (int i = 0; i < 256; i++) {
  10189e:	c7 45 fc 00 00 00 00 	movl   $0x0,-0x4(%ebp)
  1018a5:	e9 c3 00 00 00       	jmp    10196d <idt_init+0xd5>
        SETGATE(idt[i], 0, GD_KTEXT, __vectors[i], DPL_KERNEL);
  1018aa:	8b 45 fc             	mov    -0x4(%ebp),%eax
  1018ad:	8b 04 85 00 76 11 00 	mov    0x117600(,%eax,4),%eax
  1018b4:	89 c2                	mov    %eax,%edx
  1018b6:	8b 45 fc             	mov    -0x4(%ebp),%eax
  1018b9:	66 89 14 c5 c0 80 11 	mov    %dx,0x1180c0(,%eax,8)
  1018c0:	00 
  1018c1:	8b 45 fc             	mov    -0x4(%ebp),%eax
  1018c4:	66 c7 04 c5 c2 80 11 	movw   $0x8,0x1180c2(,%eax,8)
  1018cb:	00 08 00 
  1018ce:	8b 45 fc             	mov    -0x4(%ebp),%eax
  1018d1:	0f b6 14 c5 c4 80 11 	movzbl 0x1180c4(,%eax,8),%edx
  1018d8:	00 
  1018d9:	83 e2 e0             	and    $0xffffffe0,%edx
  1018dc:	88 14 c5 c4 80 11 00 	mov    %dl,0x1180c4(,%eax,8)
  1018e3:	8b 45 fc             	mov    -0x4(%ebp),%eax
  1018e6:	0f b6 14 c5 c4 80 11 	movzbl 0x1180c4(,%eax,8),%edx
  1018ed:	00 
  1018ee:	83 e2 1f             	and    $0x1f,%edx
  1018f1:	88 14 c5 c4 80 11 00 	mov    %dl,0x1180c4(,%eax,8)
  1018f8:	8b 45 fc             	mov    -0x4(%ebp),%eax
  1018fb:	0f b6 14 c5 c5 80 11 	movzbl 0x1180c5(,%eax,8),%edx
  101902:	00 
  101903:	83 e2 f0             	and    $0xfffffff0,%edx
  101906:	83 ca 0e             	or     $0xe,%edx
  101909:	88 14 c5 c5 80 11 00 	mov    %dl,0x1180c5(,%eax,8)
  101910:	8b 45 fc             	mov    -0x4(%ebp),%eax
  101913:	0f b6 14 c5 c5 80 11 	movzbl 0x1180c5(,%eax,8),%edx
  10191a:	00 
  10191b:	83 e2 ef             	and    $0xffffffef,%edx
  10191e:	88 14 c5 c5 80 11 00 	mov    %dl,0x1180c5(,%eax,8)
  101925:	8b 45 fc             	mov    -0x4(%ebp),%eax
  101928:	0f b6 14 c5 c5 80 11 	movzbl 0x1180c5(,%eax,8),%edx
  10192f:	00 
  101930:	83 e2 9f             	and    $0xffffff9f,%edx
  101933:	88 14 c5 c5 80 11 00 	mov    %dl,0x1180c5(,%eax,8)
  10193a:	8b 45 fc             	mov    -0x4(%ebp),%eax
  10193d:	0f b6 14 c5 c5 80 11 	movzbl 0x1180c5(,%eax,8),%edx
  101944:	00 
  101945:	83 ca 80             	or     $0xffffff80,%edx
  101948:	88 14 c5 c5 80 11 00 	mov    %dl,0x1180c5(,%eax,8)
  10194f:	8b 45 fc             	mov    -0x4(%ebp),%eax
  101952:	8b 04 85 00 76 11 00 	mov    0x117600(,%eax,4),%eax
  101959:	c1 e8 10             	shr    $0x10,%eax
  10195c:	89 c2                	mov    %eax,%edx
  10195e:	8b 45 fc             	mov    -0x4(%ebp),%eax
  101961:	66 89 14 c5 c6 80 11 	mov    %dx,0x1180c6(,%eax,8)
  101968:	00 
      */
    // 1. get vectors
    extern uintptr_t __vectors[];

    // 2. setup entries
    for (int i = 0; i < 256; i++) {
  101969:	83 45 fc 01          	addl   $0x1,-0x4(%ebp)
  10196d:	81 7d fc ff 00 00 00 	cmpl   $0xff,-0x4(%ebp)
  101974:	0f 8e 30 ff ff ff    	jle    1018aa <idt_init+0x12>
        SETGATE(idt[i], 0, GD_KTEXT, __vectors[i], DPL_KERNEL);
    }

	// set RPL of switch_to_kernel as user 
    SETGATE(idt[T_SWITCH_TOK], 0, GD_KTEXT, __vectors[T_SWITCH_TOK], DPL_USER);
  10197a:	a1 e4 77 11 00       	mov    0x1177e4,%eax
  10197f:	66 a3 88 84 11 00    	mov    %ax,0x118488
  101985:	66 c7 05 8a 84 11 00 	movw   $0x8,0x11848a
  10198c:	08 00 
  10198e:	0f b6 05 8c 84 11 00 	movzbl 0x11848c,%eax
  101995:	83 e0 e0             	and    $0xffffffe0,%eax
  101998:	a2 8c 84 11 00       	mov    %al,0x11848c
  10199d:	0f b6 05 8c 84 11 00 	movzbl 0x11848c,%eax
  1019a4:	83 e0 1f             	and    $0x1f,%eax
  1019a7:	a2 8c 84 11 00       	mov    %al,0x11848c
  1019ac:	0f b6 05 8d 84 11 00 	movzbl 0x11848d,%eax
  1019b3:	83 e0 f0             	and    $0xfffffff0,%eax
  1019b6:	83 c8 0e             	or     $0xe,%eax
  1019b9:	a2 8d 84 11 00       	mov    %al,0x11848d
  1019be:	0f b6 05 8d 84 11 00 	movzbl 0x11848d,%eax
  1019c5:	83 e0 ef             	and    $0xffffffef,%eax
  1019c8:	a2 8d 84 11 00       	mov    %al,0x11848d
  1019cd:	0f b6 05 8d 84 11 00 	movzbl 0x11848d,%eax
  1019d4:	83 c8 60             	or     $0x60,%eax
  1019d7:	a2 8d 84 11 00       	mov    %al,0x11848d
  1019dc:	0f b6 05 8d 84 11 00 	movzbl 0x11848d,%eax
  1019e3:	83 c8 80             	or     $0xffffff80,%eax
  1019e6:	a2 8d 84 11 00       	mov    %al,0x11848d
  1019eb:	a1 e4 77 11 00       	mov    0x1177e4,%eax
  1019f0:	c1 e8 10             	shr    $0x10,%eax
  1019f3:	66 a3 8e 84 11 00    	mov    %ax,0x11848e
  1019f9:	c7 45 f8 80 75 11 00 	movl   $0x117580,-0x8(%ebp)
    }
}

static inline void
lidt(struct pseudodesc *pd) {
    asm volatile ("lidt (%0)" :: "r" (pd) : "memory");
  101a00:	8b 45 f8             	mov    -0x8(%ebp),%eax
  101a03:	0f 01 18             	lidtl  (%eax)

    // 3. LIDT
    lidt(&idt_pd);
}
  101a06:	90                   	nop
  101a07:	c9                   	leave  
  101a08:	c3                   	ret    

00101a09 <trapname>:

static const char *
trapname(int trapno) {
  101a09:	55                   	push   %ebp
  101a0a:	89 e5                	mov    %esp,%ebp
        "Alignment Check",
        "Machine-Check",
        "SIMD Floating-Point Exception"
    };

    if (trapno < sizeof(excnames)/sizeof(const char * const)) {
  101a0c:	8b 45 08             	mov    0x8(%ebp),%eax
  101a0f:	83 f8 13             	cmp    $0x13,%eax
  101a12:	77 0c                	ja     101a20 <trapname+0x17>
        return excnames[trapno];
  101a14:	8b 45 08             	mov    0x8(%ebp),%eax
  101a17:	8b 04 85 e0 62 10 00 	mov    0x1062e0(,%eax,4),%eax
  101a1e:	eb 18                	jmp    101a38 <trapname+0x2f>
    }
    if (trapno >= IRQ_OFFSET && trapno < IRQ_OFFSET + 16) {
  101a20:	83 7d 08 1f          	cmpl   $0x1f,0x8(%ebp)
  101a24:	7e 0d                	jle    101a33 <trapname+0x2a>
  101a26:	83 7d 08 2f          	cmpl   $0x2f,0x8(%ebp)
  101a2a:	7f 07                	jg     101a33 <trapname+0x2a>
        return "Hardware Interrupt";
  101a2c:	b8 8a 5f 10 00       	mov    $0x105f8a,%eax
  101a31:	eb 05                	jmp    101a38 <trapname+0x2f>
    }
    return "(unknown trap)";
  101a33:	b8 9d 5f 10 00       	mov    $0x105f9d,%eax
}
  101a38:	5d                   	pop    %ebp
  101a39:	c3                   	ret    

00101a3a <trap_in_kernel>:

/* trap_in_kernel - test if trap happened in kernel */
bool
trap_in_kernel(struct trapframe *tf) {
  101a3a:	55                   	push   %ebp
  101a3b:	89 e5                	mov    %esp,%ebp
    return (tf->tf_cs == (uint16_t)KERNEL_CS);
  101a3d:	8b 45 08             	mov    0x8(%ebp),%eax
  101a40:	0f b7 40 3c          	movzwl 0x3c(%eax),%eax
  101a44:	66 83 f8 08          	cmp    $0x8,%ax
  101a48:	0f 94 c0             	sete   %al
  101a4b:	0f b6 c0             	movzbl %al,%eax
}
  101a4e:	5d                   	pop    %ebp
  101a4f:	c3                   	ret    

00101a50 <print_trapframe>:
    "TF", "IF", "DF", "OF", NULL, NULL, "NT", NULL,
    "RF", "VM", "AC", "VIF", "VIP", "ID", NULL, NULL,
};

void
print_trapframe(struct trapframe *tf) {
  101a50:	55                   	push   %ebp
  101a51:	89 e5                	mov    %esp,%ebp
  101a53:	83 ec 18             	sub    $0x18,%esp
    cprintf("trapframe at %p\n", tf);
  101a56:	83 ec 08             	sub    $0x8,%esp
  101a59:	ff 75 08             	pushl  0x8(%ebp)
  101a5c:	68 de 5f 10 00       	push   $0x105fde
  101a61:	e8 09 e8 ff ff       	call   10026f <cprintf>
  101a66:	83 c4 10             	add    $0x10,%esp
    print_regs(&tf->tf_regs);
  101a69:	8b 45 08             	mov    0x8(%ebp),%eax
  101a6c:	83 ec 0c             	sub    $0xc,%esp
  101a6f:	50                   	push   %eax
  101a70:	e8 b8 01 00 00       	call   101c2d <print_regs>
  101a75:	83 c4 10             	add    $0x10,%esp
    cprintf("  ds   0x----%04x\n", tf->tf_ds);
  101a78:	8b 45 08             	mov    0x8(%ebp),%eax
  101a7b:	0f b7 40 2c          	movzwl 0x2c(%eax),%eax
  101a7f:	0f b7 c0             	movzwl %ax,%eax
  101a82:	83 ec 08             	sub    $0x8,%esp
  101a85:	50                   	push   %eax
  101a86:	68 ef 5f 10 00       	push   $0x105fef
  101a8b:	e8 df e7 ff ff       	call   10026f <cprintf>
  101a90:	83 c4 10             	add    $0x10,%esp
    cprintf("  es   0x----%04x\n", tf->tf_es);
  101a93:	8b 45 08             	mov    0x8(%ebp),%eax
  101a96:	0f b7 40 28          	movzwl 0x28(%eax),%eax
  101a9a:	0f b7 c0             	movzwl %ax,%eax
  101a9d:	83 ec 08             	sub    $0x8,%esp
  101aa0:	50                   	push   %eax
  101aa1:	68 02 60 10 00       	push   $0x106002
  101aa6:	e8 c4 e7 ff ff       	call   10026f <cprintf>
  101aab:	83 c4 10             	add    $0x10,%esp
    cprintf("  fs   0x----%04x\n", tf->tf_fs);
  101aae:	8b 45 08             	mov    0x8(%ebp),%eax
  101ab1:	0f b7 40 24          	movzwl 0x24(%eax),%eax
  101ab5:	0f b7 c0             	movzwl %ax,%eax
  101ab8:	83 ec 08             	sub    $0x8,%esp
  101abb:	50                   	push   %eax
  101abc:	68 15 60 10 00       	push   $0x106015
  101ac1:	e8 a9 e7 ff ff       	call   10026f <cprintf>
  101ac6:	83 c4 10             	add    $0x10,%esp
    cprintf("  gs   0x----%04x\n", tf->tf_gs);
  101ac9:	8b 45 08             	mov    0x8(%ebp),%eax
  101acc:	0f b7 40 20          	movzwl 0x20(%eax),%eax
  101ad0:	0f b7 c0             	movzwl %ax,%eax
  101ad3:	83 ec 08             	sub    $0x8,%esp
  101ad6:	50                   	push   %eax
  101ad7:	68 28 60 10 00       	push   $0x106028
  101adc:	e8 8e e7 ff ff       	call   10026f <cprintf>
  101ae1:	83 c4 10             	add    $0x10,%esp
    cprintf("  trap 0x%08x %s\n", tf->tf_trapno, trapname(tf->tf_trapno));
  101ae4:	8b 45 08             	mov    0x8(%ebp),%eax
  101ae7:	8b 40 30             	mov    0x30(%eax),%eax
  101aea:	83 ec 0c             	sub    $0xc,%esp
  101aed:	50                   	push   %eax
  101aee:	e8 16 ff ff ff       	call   101a09 <trapname>
  101af3:	83 c4 10             	add    $0x10,%esp
  101af6:	89 c2                	mov    %eax,%edx
  101af8:	8b 45 08             	mov    0x8(%ebp),%eax
  101afb:	8b 40 30             	mov    0x30(%eax),%eax
  101afe:	83 ec 04             	sub    $0x4,%esp
  101b01:	52                   	push   %edx
  101b02:	50                   	push   %eax
  101b03:	68 3b 60 10 00       	push   $0x10603b
  101b08:	e8 62 e7 ff ff       	call   10026f <cprintf>
  101b0d:	83 c4 10             	add    $0x10,%esp
    cprintf("  err  0x%08x\n", tf->tf_err);
  101b10:	8b 45 08             	mov    0x8(%ebp),%eax
  101b13:	8b 40 34             	mov    0x34(%eax),%eax
  101b16:	83 ec 08             	sub    $0x8,%esp
  101b19:	50                   	push   %eax
  101b1a:	68 4d 60 10 00       	push   $0x10604d
  101b1f:	e8 4b e7 ff ff       	call   10026f <cprintf>
  101b24:	83 c4 10             	add    $0x10,%esp
    cprintf("  eip  0x%08x\n", tf->tf_eip);
  101b27:	8b 45 08             	mov    0x8(%ebp),%eax
  101b2a:	8b 40 38             	mov    0x38(%eax),%eax
  101b2d:	83 ec 08             	sub    $0x8,%esp
  101b30:	50                   	push   %eax
  101b31:	68 5c 60 10 00       	push   $0x10605c
  101b36:	e8 34 e7 ff ff       	call   10026f <cprintf>
  101b3b:	83 c4 10             	add    $0x10,%esp
    cprintf("  cs   0x----%04x\n", tf->tf_cs);
  101b3e:	8b 45 08             	mov    0x8(%ebp),%eax
  101b41:	0f b7 40 3c          	movzwl 0x3c(%eax),%eax
  101b45:	0f b7 c0             	movzwl %ax,%eax
  101b48:	83 ec 08             	sub    $0x8,%esp
  101b4b:	50                   	push   %eax
  101b4c:	68 6b 60 10 00       	push   $0x10606b
  101b51:	e8 19 e7 ff ff       	call   10026f <cprintf>
  101b56:	83 c4 10             	add    $0x10,%esp
    cprintf("  flag 0x%08x ", tf->tf_eflags);
  101b59:	8b 45 08             	mov    0x8(%ebp),%eax
  101b5c:	8b 40 40             	mov    0x40(%eax),%eax
  101b5f:	83 ec 08             	sub    $0x8,%esp
  101b62:	50                   	push   %eax
  101b63:	68 7e 60 10 00       	push   $0x10607e
  101b68:	e8 02 e7 ff ff       	call   10026f <cprintf>
  101b6d:	83 c4 10             	add    $0x10,%esp

    int i, j;
    for (i = 0, j = 1; i < sizeof(IA32flags) / sizeof(IA32flags[0]); i ++, j <<= 1) {
  101b70:	c7 45 f4 00 00 00 00 	movl   $0x0,-0xc(%ebp)
  101b77:	c7 45 f0 01 00 00 00 	movl   $0x1,-0x10(%ebp)
  101b7e:	eb 3f                	jmp    101bbf <print_trapframe+0x16f>
        if ((tf->tf_eflags & j) && IA32flags[i] != NULL) {
  101b80:	8b 45 08             	mov    0x8(%ebp),%eax
  101b83:	8b 50 40             	mov    0x40(%eax),%edx
  101b86:	8b 45 f0             	mov    -0x10(%ebp),%eax
  101b89:	21 d0                	and    %edx,%eax
  101b8b:	85 c0                	test   %eax,%eax
  101b8d:	74 29                	je     101bb8 <print_trapframe+0x168>
  101b8f:	8b 45 f4             	mov    -0xc(%ebp),%eax
  101b92:	8b 04 85 a0 75 11 00 	mov    0x1175a0(,%eax,4),%eax
  101b99:	85 c0                	test   %eax,%eax
  101b9b:	74 1b                	je     101bb8 <print_trapframe+0x168>
            cprintf("%s,", IA32flags[i]);
  101b9d:	8b 45 f4             	mov    -0xc(%ebp),%eax
  101ba0:	8b 04 85 a0 75 11 00 	mov    0x1175a0(,%eax,4),%eax
  101ba7:	83 ec 08             	sub    $0x8,%esp
  101baa:	50                   	push   %eax
  101bab:	68 8d 60 10 00       	push   $0x10608d
  101bb0:	e8 ba e6 ff ff       	call   10026f <cprintf>
  101bb5:	83 c4 10             	add    $0x10,%esp
    cprintf("  eip  0x%08x\n", tf->tf_eip);
    cprintf("  cs   0x----%04x\n", tf->tf_cs);
    cprintf("  flag 0x%08x ", tf->tf_eflags);

    int i, j;
    for (i = 0, j = 1; i < sizeof(IA32flags) / sizeof(IA32flags[0]); i ++, j <<= 1) {
  101bb8:	83 45 f4 01          	addl   $0x1,-0xc(%ebp)
  101bbc:	d1 65 f0             	shll   -0x10(%ebp)
  101bbf:	8b 45 f4             	mov    -0xc(%ebp),%eax
  101bc2:	83 f8 17             	cmp    $0x17,%eax
  101bc5:	76 b9                	jbe    101b80 <print_trapframe+0x130>
        if ((tf->tf_eflags & j) && IA32flags[i] != NULL) {
            cprintf("%s,", IA32flags[i]);
        }
    }
    cprintf("IOPL=%d\n", (tf->tf_eflags & FL_IOPL_MASK) >> 12);
  101bc7:	8b 45 08             	mov    0x8(%ebp),%eax
  101bca:	8b 40 40             	mov    0x40(%eax),%eax
  101bcd:	25 00 30 00 00       	and    $0x3000,%eax
  101bd2:	c1 e8 0c             	shr    $0xc,%eax
  101bd5:	83 ec 08             	sub    $0x8,%esp
  101bd8:	50                   	push   %eax
  101bd9:	68 91 60 10 00       	push   $0x106091
  101bde:	e8 8c e6 ff ff       	call   10026f <cprintf>
  101be3:	83 c4 10             	add    $0x10,%esp

    if (!trap_in_kernel(tf)) {
  101be6:	83 ec 0c             	sub    $0xc,%esp
  101be9:	ff 75 08             	pushl  0x8(%ebp)
  101bec:	e8 49 fe ff ff       	call   101a3a <trap_in_kernel>
  101bf1:	83 c4 10             	add    $0x10,%esp
  101bf4:	85 c0                	test   %eax,%eax
  101bf6:	75 32                	jne    101c2a <print_trapframe+0x1da>
        cprintf("  esp  0x%08x\n", tf->tf_esp);
  101bf8:	8b 45 08             	mov    0x8(%ebp),%eax
  101bfb:	8b 40 44             	mov    0x44(%eax),%eax
  101bfe:	83 ec 08             	sub    $0x8,%esp
  101c01:	50                   	push   %eax
  101c02:	68 9a 60 10 00       	push   $0x10609a
  101c07:	e8 63 e6 ff ff       	call   10026f <cprintf>
  101c0c:	83 c4 10             	add    $0x10,%esp
        cprintf("  ss   0x----%04x\n", tf->tf_ss);
  101c0f:	8b 45 08             	mov    0x8(%ebp),%eax
  101c12:	0f b7 40 48          	movzwl 0x48(%eax),%eax
  101c16:	0f b7 c0             	movzwl %ax,%eax
  101c19:	83 ec 08             	sub    $0x8,%esp
  101c1c:	50                   	push   %eax
  101c1d:	68 a9 60 10 00       	push   $0x1060a9
  101c22:	e8 48 e6 ff ff       	call   10026f <cprintf>
  101c27:	83 c4 10             	add    $0x10,%esp
    }
}
  101c2a:	90                   	nop
  101c2b:	c9                   	leave  
  101c2c:	c3                   	ret    

00101c2d <print_regs>:

void
print_regs(struct pushregs *regs) {
  101c2d:	55                   	push   %ebp
  101c2e:	89 e5                	mov    %esp,%ebp
  101c30:	83 ec 08             	sub    $0x8,%esp
    cprintf("  edi  0x%08x\n", regs->reg_edi);
  101c33:	8b 45 08             	mov    0x8(%ebp),%eax
  101c36:	8b 00                	mov    (%eax),%eax
  101c38:	83 ec 08             	sub    $0x8,%esp
  101c3b:	50                   	push   %eax
  101c3c:	68 bc 60 10 00       	push   $0x1060bc
  101c41:	e8 29 e6 ff ff       	call   10026f <cprintf>
  101c46:	83 c4 10             	add    $0x10,%esp
    cprintf("  esi  0x%08x\n", regs->reg_esi);
  101c49:	8b 45 08             	mov    0x8(%ebp),%eax
  101c4c:	8b 40 04             	mov    0x4(%eax),%eax
  101c4f:	83 ec 08             	sub    $0x8,%esp
  101c52:	50                   	push   %eax
  101c53:	68 cb 60 10 00       	push   $0x1060cb
  101c58:	e8 12 e6 ff ff       	call   10026f <cprintf>
  101c5d:	83 c4 10             	add    $0x10,%esp
    cprintf("  ebp  0x%08x\n", regs->reg_ebp);
  101c60:	8b 45 08             	mov    0x8(%ebp),%eax
  101c63:	8b 40 08             	mov    0x8(%eax),%eax
  101c66:	83 ec 08             	sub    $0x8,%esp
  101c69:	50                   	push   %eax
  101c6a:	68 da 60 10 00       	push   $0x1060da
  101c6f:	e8 fb e5 ff ff       	call   10026f <cprintf>
  101c74:	83 c4 10             	add    $0x10,%esp
    cprintf("  oesp 0x%08x\n", regs->reg_oesp);
  101c77:	8b 45 08             	mov    0x8(%ebp),%eax
  101c7a:	8b 40 0c             	mov    0xc(%eax),%eax
  101c7d:	83 ec 08             	sub    $0x8,%esp
  101c80:	50                   	push   %eax
  101c81:	68 e9 60 10 00       	push   $0x1060e9
  101c86:	e8 e4 e5 ff ff       	call   10026f <cprintf>
  101c8b:	83 c4 10             	add    $0x10,%esp
    cprintf("  ebx  0x%08x\n", regs->reg_ebx);
  101c8e:	8b 45 08             	mov    0x8(%ebp),%eax
  101c91:	8b 40 10             	mov    0x10(%eax),%eax
  101c94:	83 ec 08             	sub    $0x8,%esp
  101c97:	50                   	push   %eax
  101c98:	68 f8 60 10 00       	push   $0x1060f8
  101c9d:	e8 cd e5 ff ff       	call   10026f <cprintf>
  101ca2:	83 c4 10             	add    $0x10,%esp
    cprintf("  edx  0x%08x\n", regs->reg_edx);
  101ca5:	8b 45 08             	mov    0x8(%ebp),%eax
  101ca8:	8b 40 14             	mov    0x14(%eax),%eax
  101cab:	83 ec 08             	sub    $0x8,%esp
  101cae:	50                   	push   %eax
  101caf:	68 07 61 10 00       	push   $0x106107
  101cb4:	e8 b6 e5 ff ff       	call   10026f <cprintf>
  101cb9:	83 c4 10             	add    $0x10,%esp
    cprintf("  ecx  0x%08x\n", regs->reg_ecx);
  101cbc:	8b 45 08             	mov    0x8(%ebp),%eax
  101cbf:	8b 40 18             	mov    0x18(%eax),%eax
  101cc2:	83 ec 08             	sub    $0x8,%esp
  101cc5:	50                   	push   %eax
  101cc6:	68 16 61 10 00       	push   $0x106116
  101ccb:	e8 9f e5 ff ff       	call   10026f <cprintf>
  101cd0:	83 c4 10             	add    $0x10,%esp
    cprintf("  eax  0x%08x\n", regs->reg_eax);
  101cd3:	8b 45 08             	mov    0x8(%ebp),%eax
  101cd6:	8b 40 1c             	mov    0x1c(%eax),%eax
  101cd9:	83 ec 08             	sub    $0x8,%esp
  101cdc:	50                   	push   %eax
  101cdd:	68 25 61 10 00       	push   $0x106125
  101ce2:	e8 88 e5 ff ff       	call   10026f <cprintf>
  101ce7:	83 c4 10             	add    $0x10,%esp
}
  101cea:	90                   	nop
  101ceb:	c9                   	leave  
  101cec:	c3                   	ret    

00101ced <trap_dispatch>:
/* LAB1: temporary trapframe or pointer to trapframe */
struct trapframe switchk2u, *switchu2k;

/* trap_dispatch - dispatch based on what type of trap occurred */
static void
trap_dispatch(struct trapframe *tf) {
  101ced:	55                   	push   %ebp
  101cee:	89 e5                	mov    %esp,%ebp
  101cf0:	57                   	push   %edi
  101cf1:	56                   	push   %esi
  101cf2:	53                   	push   %ebx
  101cf3:	83 ec 1c             	sub    $0x1c,%esp
    char c;

    switch (tf->tf_trapno) {
  101cf6:	8b 45 08             	mov    0x8(%ebp),%eax
  101cf9:	8b 40 30             	mov    0x30(%eax),%eax
  101cfc:	83 f8 2f             	cmp    $0x2f,%eax
  101cff:	77 21                	ja     101d22 <trap_dispatch+0x35>
  101d01:	83 f8 2e             	cmp    $0x2e,%eax
  101d04:	0f 83 90 01 00 00    	jae    101e9a <trap_dispatch+0x1ad>
  101d0a:	83 f8 21             	cmp    $0x21,%eax
  101d0d:	0f 84 87 00 00 00    	je     101d9a <trap_dispatch+0xad>
  101d13:	83 f8 24             	cmp    $0x24,%eax
  101d16:	74 5b                	je     101d73 <trap_dispatch+0x86>
  101d18:	83 f8 20             	cmp    $0x20,%eax
  101d1b:	74 1c                	je     101d39 <trap_dispatch+0x4c>
  101d1d:	e9 42 01 00 00       	jmp    101e64 <trap_dispatch+0x177>
  101d22:	83 f8 78             	cmp    $0x78,%eax
  101d25:	0f 84 96 00 00 00    	je     101dc1 <trap_dispatch+0xd4>
  101d2b:	83 f8 79             	cmp    $0x79,%eax
  101d2e:	0f 84 02 01 00 00    	je     101e36 <trap_dispatch+0x149>
  101d34:	e9 2b 01 00 00       	jmp    101e64 <trap_dispatch+0x177>
        /* (1) After a timer interrupt, you should record this event using a global variable (increase it), such as ticks in kern/driver/clock.c
         * (2) Every TICK_NUM cycle, you can print some info using a funciton, such as print_ticks().
         * (3) Too Simple? Yes, I think so!
         */
        // 1. record
        ticks++;
  101d39:	a1 4c 89 11 00       	mov    0x11894c,%eax
  101d3e:	83 c0 01             	add    $0x1,%eax
  101d41:	a3 4c 89 11 00       	mov    %eax,0x11894c

        // 2. print
        if (ticks % TICK_NUM == 0) {
  101d46:	8b 0d 4c 89 11 00    	mov    0x11894c,%ecx
  101d4c:	ba 1f 85 eb 51       	mov    $0x51eb851f,%edx
  101d51:	89 c8                	mov    %ecx,%eax
  101d53:	f7 e2                	mul    %edx
  101d55:	89 d0                	mov    %edx,%eax
  101d57:	c1 e8 05             	shr    $0x5,%eax
  101d5a:	6b c0 64             	imul   $0x64,%eax,%eax
  101d5d:	29 c1                	sub    %eax,%ecx
  101d5f:	89 c8                	mov    %ecx,%eax
  101d61:	85 c0                	test   %eax,%eax
  101d63:	0f 85 34 01 00 00    	jne    101e9d <trap_dispatch+0x1b0>
            print_ticks();
  101d69:	e8 0f fb ff ff       	call   10187d <print_ticks>
        }

        // 3. too simple ?!
        break;
  101d6e:	e9 2a 01 00 00       	jmp    101e9d <trap_dispatch+0x1b0>
    case IRQ_OFFSET + IRQ_COM1:
        c = cons_getc();
  101d73:	e8 c2 f8 ff ff       	call   10163a <cons_getc>
  101d78:	88 45 e7             	mov    %al,-0x19(%ebp)
        cprintf("serial [%03d] %c\n", c, c);
  101d7b:	0f be 55 e7          	movsbl -0x19(%ebp),%edx
  101d7f:	0f be 45 e7          	movsbl -0x19(%ebp),%eax
  101d83:	83 ec 04             	sub    $0x4,%esp
  101d86:	52                   	push   %edx
  101d87:	50                   	push   %eax
  101d88:	68 34 61 10 00       	push   $0x106134
  101d8d:	e8 dd e4 ff ff       	call   10026f <cprintf>
  101d92:	83 c4 10             	add    $0x10,%esp
        break;
  101d95:	e9 04 01 00 00       	jmp    101e9e <trap_dispatch+0x1b1>
    case IRQ_OFFSET + IRQ_KBD:
        c = cons_getc();
  101d9a:	e8 9b f8 ff ff       	call   10163a <cons_getc>
  101d9f:	88 45 e7             	mov    %al,-0x19(%ebp)
        cprintf("kbd [%03d] %c\n", c, c);
  101da2:	0f be 55 e7          	movsbl -0x19(%ebp),%edx
  101da6:	0f be 45 e7          	movsbl -0x19(%ebp),%eax
  101daa:	83 ec 04             	sub    $0x4,%esp
  101dad:	52                   	push   %edx
  101dae:	50                   	push   %eax
  101daf:	68 46 61 10 00       	push   $0x106146
  101db4:	e8 b6 e4 ff ff       	call   10026f <cprintf>
  101db9:	83 c4 10             	add    $0x10,%esp
        break;
  101dbc:	e9 dd 00 00 00       	jmp    101e9e <trap_dispatch+0x1b1>
    //LAB1 CHALLENGE 1 : YOUR CODE you should modify below codes.
    case T_SWITCH_TOU:
        switchk2u = *tf;
  101dc1:	8b 55 08             	mov    0x8(%ebp),%edx
  101dc4:	b8 60 89 11 00       	mov    $0x118960,%eax
  101dc9:	89 d3                	mov    %edx,%ebx
  101dcb:	ba 4c 00 00 00       	mov    $0x4c,%edx
  101dd0:	8b 0b                	mov    (%ebx),%ecx
  101dd2:	89 08                	mov    %ecx,(%eax)
  101dd4:	8b 4c 13 fc          	mov    -0x4(%ebx,%edx,1),%ecx
  101dd8:	89 4c 10 fc          	mov    %ecx,-0x4(%eax,%edx,1)
  101ddc:	8d 78 04             	lea    0x4(%eax),%edi
  101ddf:	83 e7 fc             	and    $0xfffffffc,%edi
  101de2:	29 f8                	sub    %edi,%eax
  101de4:	29 c3                	sub    %eax,%ebx
  101de6:	01 c2                	add    %eax,%edx
  101de8:	83 e2 fc             	and    $0xfffffffc,%edx
  101deb:	89 d0                	mov    %edx,%eax
  101ded:	c1 e8 02             	shr    $0x2,%eax
  101df0:	89 de                	mov    %ebx,%esi
  101df2:	89 c1                	mov    %eax,%ecx
  101df4:	f3 a5                	rep movsl %ds:(%esi),%es:(%edi)
        switchk2u.tf_cs = USER_CS;
  101df6:	66 c7 05 9c 89 11 00 	movw   $0x1b,0x11899c
  101dfd:	1b 00 
        switchk2u.tf_ds = USER_DS;
  101dff:	66 c7 05 8c 89 11 00 	movw   $0x23,0x11898c
  101e06:	23 00 
        switchk2u.tf_es = USER_DS;
  101e08:	66 c7 05 88 89 11 00 	movw   $0x23,0x118988
  101e0f:	23 00 
        switchk2u.tf_ss = USER_DS;
  101e11:	66 c7 05 a8 89 11 00 	movw   $0x23,0x1189a8
  101e18:	23 00 

        // set eflags, make sure ucore can use io under user mode.
        // if CPL > IOPL, then cpu will generate a general protection.
        switchk2u.tf_eflags |= FL_IOPL_MASK;
  101e1a:	a1 a0 89 11 00       	mov    0x1189a0,%eax
  101e1f:	80 cc 30             	or     $0x30,%ah
  101e22:	a3 a0 89 11 00       	mov    %eax,0x1189a0
        // set trap frame pointer
        // tf is the pointer to the pointer of trap frame (a structure)
        // tf = esp, while esp -> esp - 1 (*trap_frame) due to `pushl %esp`
        // so *(tf - 1) is the pointer to trap frame
        // change *trap_frame to point to the new frame
        *((uint32_t *)tf - 1) = (uint32_t)&switchk2u;
  101e27:	8b 45 08             	mov    0x8(%ebp),%eax
  101e2a:	83 e8 04             	sub    $0x4,%eax
  101e2d:	ba 60 89 11 00       	mov    $0x118960,%edx
  101e32:	89 10                	mov    %edx,(%eax)
        break;
  101e34:	eb 68                	jmp    101e9e <trap_dispatch+0x1b1>
    case T_SWITCH_TOK:
        // panic("T_SWITCH_** ??\n");
        tf->tf_cs = KERNEL_CS;
  101e36:	8b 45 08             	mov    0x8(%ebp),%eax
  101e39:	66 c7 40 3c 08 00    	movw   $0x8,0x3c(%eax)
        tf->tf_ds = KERNEL_DS;
  101e3f:	8b 45 08             	mov    0x8(%ebp),%eax
  101e42:	66 c7 40 2c 10 00    	movw   $0x10,0x2c(%eax)
        tf->tf_es = KERNEL_DS;
  101e48:	8b 45 08             	mov    0x8(%ebp),%eax
  101e4b:	66 c7 40 28 10 00    	movw   $0x10,0x28(%eax)

        // restore eflags
        tf->tf_eflags &= ~FL_IOPL_MASK;
  101e51:	8b 45 08             	mov    0x8(%ebp),%eax
  101e54:	8b 40 40             	mov    0x40(%eax),%eax
  101e57:	80 e4 cf             	and    $0xcf,%ah
  101e5a:	89 c2                	mov    %eax,%edx
  101e5c:	8b 45 08             	mov    0x8(%ebp),%eax
  101e5f:	89 50 40             	mov    %edx,0x40(%eax)
        break;
  101e62:	eb 3a                	jmp    101e9e <trap_dispatch+0x1b1>
    case IRQ_OFFSET + IRQ_IDE2:
        /* do nothing */
        break;
    default:
        // in kernel, it must be a mistake
        if ((tf->tf_cs & 3) == 0) {
  101e64:	8b 45 08             	mov    0x8(%ebp),%eax
  101e67:	0f b7 40 3c          	movzwl 0x3c(%eax),%eax
  101e6b:	0f b7 c0             	movzwl %ax,%eax
  101e6e:	83 e0 03             	and    $0x3,%eax
  101e71:	85 c0                	test   %eax,%eax
  101e73:	75 29                	jne    101e9e <trap_dispatch+0x1b1>
            print_trapframe(tf);
  101e75:	83 ec 0c             	sub    $0xc,%esp
  101e78:	ff 75 08             	pushl  0x8(%ebp)
  101e7b:	e8 d0 fb ff ff       	call   101a50 <print_trapframe>
  101e80:	83 c4 10             	add    $0x10,%esp
            panic("unexpected trap in kernel.\n");
  101e83:	83 ec 04             	sub    $0x4,%esp
  101e86:	68 55 61 10 00       	push   $0x106155
  101e8b:	68 dc 00 00 00       	push   $0xdc
  101e90:	68 71 61 10 00       	push   $0x106171
  101e95:	e8 3b e5 ff ff       	call   1003d5 <__panic>
        tf->tf_eflags &= ~FL_IOPL_MASK;
        break;
    case IRQ_OFFSET + IRQ_IDE1:
    case IRQ_OFFSET + IRQ_IDE2:
        /* do nothing */
        break;
  101e9a:	90                   	nop
  101e9b:	eb 01                	jmp    101e9e <trap_dispatch+0x1b1>
        if (ticks % TICK_NUM == 0) {
            print_ticks();
        }

        // 3. too simple ?!
        break;
  101e9d:	90                   	nop
        if ((tf->tf_cs & 3) == 0) {
            print_trapframe(tf);
            panic("unexpected trap in kernel.\n");
        }
    }
}
  101e9e:	90                   	nop
  101e9f:	8d 65 f4             	lea    -0xc(%ebp),%esp
  101ea2:	5b                   	pop    %ebx
  101ea3:	5e                   	pop    %esi
  101ea4:	5f                   	pop    %edi
  101ea5:	5d                   	pop    %ebp
  101ea6:	c3                   	ret    

00101ea7 <trap>:
 * trap - handles or dispatches an exception/interrupt. if and when trap() returns,
 * the code in kern/trap/trapentry.S restores the old CPU state saved in the
 * trapframe and then uses the iret instruction to return from the exception.
 * */
void
trap(struct trapframe *tf) {
  101ea7:	55                   	push   %ebp
  101ea8:	89 e5                	mov    %esp,%ebp
  101eaa:	83 ec 08             	sub    $0x8,%esp
    // dispatch based on what type of trap occurred
    trap_dispatch(tf);
  101ead:	83 ec 0c             	sub    $0xc,%esp
  101eb0:	ff 75 08             	pushl  0x8(%ebp)
  101eb3:	e8 35 fe ff ff       	call   101ced <trap_dispatch>
  101eb8:	83 c4 10             	add    $0x10,%esp
}
  101ebb:	90                   	nop
  101ebc:	c9                   	leave  
  101ebd:	c3                   	ret    

00101ebe <vector0>:
# handler
.text
.globl __alltraps
.globl vector0
vector0:
  pushl $0
  101ebe:	6a 00                	push   $0x0
  pushl $0
  101ec0:	6a 00                	push   $0x0
  jmp __alltraps
  101ec2:	e9 69 0a 00 00       	jmp    102930 <__alltraps>

00101ec7 <vector1>:
.globl vector1
vector1:
  pushl $0
  101ec7:	6a 00                	push   $0x0
  pushl $1
  101ec9:	6a 01                	push   $0x1
  jmp __alltraps
  101ecb:	e9 60 0a 00 00       	jmp    102930 <__alltraps>

00101ed0 <vector2>:
.globl vector2
vector2:
  pushl $0
  101ed0:	6a 00                	push   $0x0
  pushl $2
  101ed2:	6a 02                	push   $0x2
  jmp __alltraps
  101ed4:	e9 57 0a 00 00       	jmp    102930 <__alltraps>

00101ed9 <vector3>:
.globl vector3
vector3:
  pushl $0
  101ed9:	6a 00                	push   $0x0
  pushl $3
  101edb:	6a 03                	push   $0x3
  jmp __alltraps
  101edd:	e9 4e 0a 00 00       	jmp    102930 <__alltraps>

00101ee2 <vector4>:
.globl vector4
vector4:
  pushl $0
  101ee2:	6a 00                	push   $0x0
  pushl $4
  101ee4:	6a 04                	push   $0x4
  jmp __alltraps
  101ee6:	e9 45 0a 00 00       	jmp    102930 <__alltraps>

00101eeb <vector5>:
.globl vector5
vector5:
  pushl $0
  101eeb:	6a 00                	push   $0x0
  pushl $5
  101eed:	6a 05                	push   $0x5
  jmp __alltraps
  101eef:	e9 3c 0a 00 00       	jmp    102930 <__alltraps>

00101ef4 <vector6>:
.globl vector6
vector6:
  pushl $0
  101ef4:	6a 00                	push   $0x0
  pushl $6
  101ef6:	6a 06                	push   $0x6
  jmp __alltraps
  101ef8:	e9 33 0a 00 00       	jmp    102930 <__alltraps>

00101efd <vector7>:
.globl vector7
vector7:
  pushl $0
  101efd:	6a 00                	push   $0x0
  pushl $7
  101eff:	6a 07                	push   $0x7
  jmp __alltraps
  101f01:	e9 2a 0a 00 00       	jmp    102930 <__alltraps>

00101f06 <vector8>:
.globl vector8
vector8:
  pushl $8
  101f06:	6a 08                	push   $0x8
  jmp __alltraps
  101f08:	e9 23 0a 00 00       	jmp    102930 <__alltraps>

00101f0d <vector9>:
.globl vector9
vector9:
  pushl $0
  101f0d:	6a 00                	push   $0x0
  pushl $9
  101f0f:	6a 09                	push   $0x9
  jmp __alltraps
  101f11:	e9 1a 0a 00 00       	jmp    102930 <__alltraps>

00101f16 <vector10>:
.globl vector10
vector10:
  pushl $10
  101f16:	6a 0a                	push   $0xa
  jmp __alltraps
  101f18:	e9 13 0a 00 00       	jmp    102930 <__alltraps>

00101f1d <vector11>:
.globl vector11
vector11:
  pushl $11
  101f1d:	6a 0b                	push   $0xb
  jmp __alltraps
  101f1f:	e9 0c 0a 00 00       	jmp    102930 <__alltraps>

00101f24 <vector12>:
.globl vector12
vector12:
  pushl $12
  101f24:	6a 0c                	push   $0xc
  jmp __alltraps
  101f26:	e9 05 0a 00 00       	jmp    102930 <__alltraps>

00101f2b <vector13>:
.globl vector13
vector13:
  pushl $13
  101f2b:	6a 0d                	push   $0xd
  jmp __alltraps
  101f2d:	e9 fe 09 00 00       	jmp    102930 <__alltraps>

00101f32 <vector14>:
.globl vector14
vector14:
  pushl $14
  101f32:	6a 0e                	push   $0xe
  jmp __alltraps
  101f34:	e9 f7 09 00 00       	jmp    102930 <__alltraps>

00101f39 <vector15>:
.globl vector15
vector15:
  pushl $0
  101f39:	6a 00                	push   $0x0
  pushl $15
  101f3b:	6a 0f                	push   $0xf
  jmp __alltraps
  101f3d:	e9 ee 09 00 00       	jmp    102930 <__alltraps>

00101f42 <vector16>:
.globl vector16
vector16:
  pushl $0
  101f42:	6a 00                	push   $0x0
  pushl $16
  101f44:	6a 10                	push   $0x10
  jmp __alltraps
  101f46:	e9 e5 09 00 00       	jmp    102930 <__alltraps>

00101f4b <vector17>:
.globl vector17
vector17:
  pushl $17
  101f4b:	6a 11                	push   $0x11
  jmp __alltraps
  101f4d:	e9 de 09 00 00       	jmp    102930 <__alltraps>

00101f52 <vector18>:
.globl vector18
vector18:
  pushl $0
  101f52:	6a 00                	push   $0x0
  pushl $18
  101f54:	6a 12                	push   $0x12
  jmp __alltraps
  101f56:	e9 d5 09 00 00       	jmp    102930 <__alltraps>

00101f5b <vector19>:
.globl vector19
vector19:
  pushl $0
  101f5b:	6a 00                	push   $0x0
  pushl $19
  101f5d:	6a 13                	push   $0x13
  jmp __alltraps
  101f5f:	e9 cc 09 00 00       	jmp    102930 <__alltraps>

00101f64 <vector20>:
.globl vector20
vector20:
  pushl $0
  101f64:	6a 00                	push   $0x0
  pushl $20
  101f66:	6a 14                	push   $0x14
  jmp __alltraps
  101f68:	e9 c3 09 00 00       	jmp    102930 <__alltraps>

00101f6d <vector21>:
.globl vector21
vector21:
  pushl $0
  101f6d:	6a 00                	push   $0x0
  pushl $21
  101f6f:	6a 15                	push   $0x15
  jmp __alltraps
  101f71:	e9 ba 09 00 00       	jmp    102930 <__alltraps>

00101f76 <vector22>:
.globl vector22
vector22:
  pushl $0
  101f76:	6a 00                	push   $0x0
  pushl $22
  101f78:	6a 16                	push   $0x16
  jmp __alltraps
  101f7a:	e9 b1 09 00 00       	jmp    102930 <__alltraps>

00101f7f <vector23>:
.globl vector23
vector23:
  pushl $0
  101f7f:	6a 00                	push   $0x0
  pushl $23
  101f81:	6a 17                	push   $0x17
  jmp __alltraps
  101f83:	e9 a8 09 00 00       	jmp    102930 <__alltraps>

00101f88 <vector24>:
.globl vector24
vector24:
  pushl $0
  101f88:	6a 00                	push   $0x0
  pushl $24
  101f8a:	6a 18                	push   $0x18
  jmp __alltraps
  101f8c:	e9 9f 09 00 00       	jmp    102930 <__alltraps>

00101f91 <vector25>:
.globl vector25
vector25:
  pushl $0
  101f91:	6a 00                	push   $0x0
  pushl $25
  101f93:	6a 19                	push   $0x19
  jmp __alltraps
  101f95:	e9 96 09 00 00       	jmp    102930 <__alltraps>

00101f9a <vector26>:
.globl vector26
vector26:
  pushl $0
  101f9a:	6a 00                	push   $0x0
  pushl $26
  101f9c:	6a 1a                	push   $0x1a
  jmp __alltraps
  101f9e:	e9 8d 09 00 00       	jmp    102930 <__alltraps>

00101fa3 <vector27>:
.globl vector27
vector27:
  pushl $0
  101fa3:	6a 00                	push   $0x0
  pushl $27
  101fa5:	6a 1b                	push   $0x1b
  jmp __alltraps
  101fa7:	e9 84 09 00 00       	jmp    102930 <__alltraps>

00101fac <vector28>:
.globl vector28
vector28:
  pushl $0
  101fac:	6a 00                	push   $0x0
  pushl $28
  101fae:	6a 1c                	push   $0x1c
  jmp __alltraps
  101fb0:	e9 7b 09 00 00       	jmp    102930 <__alltraps>

00101fb5 <vector29>:
.globl vector29
vector29:
  pushl $0
  101fb5:	6a 00                	push   $0x0
  pushl $29
  101fb7:	6a 1d                	push   $0x1d
  jmp __alltraps
  101fb9:	e9 72 09 00 00       	jmp    102930 <__alltraps>

00101fbe <vector30>:
.globl vector30
vector30:
  pushl $0
  101fbe:	6a 00                	push   $0x0
  pushl $30
  101fc0:	6a 1e                	push   $0x1e
  jmp __alltraps
  101fc2:	e9 69 09 00 00       	jmp    102930 <__alltraps>

00101fc7 <vector31>:
.globl vector31
vector31:
  pushl $0
  101fc7:	6a 00                	push   $0x0
  pushl $31
  101fc9:	6a 1f                	push   $0x1f
  jmp __alltraps
  101fcb:	e9 60 09 00 00       	jmp    102930 <__alltraps>

00101fd0 <vector32>:
.globl vector32
vector32:
  pushl $0
  101fd0:	6a 00                	push   $0x0
  pushl $32
  101fd2:	6a 20                	push   $0x20
  jmp __alltraps
  101fd4:	e9 57 09 00 00       	jmp    102930 <__alltraps>

00101fd9 <vector33>:
.globl vector33
vector33:
  pushl $0
  101fd9:	6a 00                	push   $0x0
  pushl $33
  101fdb:	6a 21                	push   $0x21
  jmp __alltraps
  101fdd:	e9 4e 09 00 00       	jmp    102930 <__alltraps>

00101fe2 <vector34>:
.globl vector34
vector34:
  pushl $0
  101fe2:	6a 00                	push   $0x0
  pushl $34
  101fe4:	6a 22                	push   $0x22
  jmp __alltraps
  101fe6:	e9 45 09 00 00       	jmp    102930 <__alltraps>

00101feb <vector35>:
.globl vector35
vector35:
  pushl $0
  101feb:	6a 00                	push   $0x0
  pushl $35
  101fed:	6a 23                	push   $0x23
  jmp __alltraps
  101fef:	e9 3c 09 00 00       	jmp    102930 <__alltraps>

00101ff4 <vector36>:
.globl vector36
vector36:
  pushl $0
  101ff4:	6a 00                	push   $0x0
  pushl $36
  101ff6:	6a 24                	push   $0x24
  jmp __alltraps
  101ff8:	e9 33 09 00 00       	jmp    102930 <__alltraps>

00101ffd <vector37>:
.globl vector37
vector37:
  pushl $0
  101ffd:	6a 00                	push   $0x0
  pushl $37
  101fff:	6a 25                	push   $0x25
  jmp __alltraps
  102001:	e9 2a 09 00 00       	jmp    102930 <__alltraps>

00102006 <vector38>:
.globl vector38
vector38:
  pushl $0
  102006:	6a 00                	push   $0x0
  pushl $38
  102008:	6a 26                	push   $0x26
  jmp __alltraps
  10200a:	e9 21 09 00 00       	jmp    102930 <__alltraps>

0010200f <vector39>:
.globl vector39
vector39:
  pushl $0
  10200f:	6a 00                	push   $0x0
  pushl $39
  102011:	6a 27                	push   $0x27
  jmp __alltraps
  102013:	e9 18 09 00 00       	jmp    102930 <__alltraps>

00102018 <vector40>:
.globl vector40
vector40:
  pushl $0
  102018:	6a 00                	push   $0x0
  pushl $40
  10201a:	6a 28                	push   $0x28
  jmp __alltraps
  10201c:	e9 0f 09 00 00       	jmp    102930 <__alltraps>

00102021 <vector41>:
.globl vector41
vector41:
  pushl $0
  102021:	6a 00                	push   $0x0
  pushl $41
  102023:	6a 29                	push   $0x29
  jmp __alltraps
  102025:	e9 06 09 00 00       	jmp    102930 <__alltraps>

0010202a <vector42>:
.globl vector42
vector42:
  pushl $0
  10202a:	6a 00                	push   $0x0
  pushl $42
  10202c:	6a 2a                	push   $0x2a
  jmp __alltraps
  10202e:	e9 fd 08 00 00       	jmp    102930 <__alltraps>

00102033 <vector43>:
.globl vector43
vector43:
  pushl $0
  102033:	6a 00                	push   $0x0
  pushl $43
  102035:	6a 2b                	push   $0x2b
  jmp __alltraps
  102037:	e9 f4 08 00 00       	jmp    102930 <__alltraps>

0010203c <vector44>:
.globl vector44
vector44:
  pushl $0
  10203c:	6a 00                	push   $0x0
  pushl $44
  10203e:	6a 2c                	push   $0x2c
  jmp __alltraps
  102040:	e9 eb 08 00 00       	jmp    102930 <__alltraps>

00102045 <vector45>:
.globl vector45
vector45:
  pushl $0
  102045:	6a 00                	push   $0x0
  pushl $45
  102047:	6a 2d                	push   $0x2d
  jmp __alltraps
  102049:	e9 e2 08 00 00       	jmp    102930 <__alltraps>

0010204e <vector46>:
.globl vector46
vector46:
  pushl $0
  10204e:	6a 00                	push   $0x0
  pushl $46
  102050:	6a 2e                	push   $0x2e
  jmp __alltraps
  102052:	e9 d9 08 00 00       	jmp    102930 <__alltraps>

00102057 <vector47>:
.globl vector47
vector47:
  pushl $0
  102057:	6a 00                	push   $0x0
  pushl $47
  102059:	6a 2f                	push   $0x2f
  jmp __alltraps
  10205b:	e9 d0 08 00 00       	jmp    102930 <__alltraps>

00102060 <vector48>:
.globl vector48
vector48:
  pushl $0
  102060:	6a 00                	push   $0x0
  pushl $48
  102062:	6a 30                	push   $0x30
  jmp __alltraps
  102064:	e9 c7 08 00 00       	jmp    102930 <__alltraps>

00102069 <vector49>:
.globl vector49
vector49:
  pushl $0
  102069:	6a 00                	push   $0x0
  pushl $49
  10206b:	6a 31                	push   $0x31
  jmp __alltraps
  10206d:	e9 be 08 00 00       	jmp    102930 <__alltraps>

00102072 <vector50>:
.globl vector50
vector50:
  pushl $0
  102072:	6a 00                	push   $0x0
  pushl $50
  102074:	6a 32                	push   $0x32
  jmp __alltraps
  102076:	e9 b5 08 00 00       	jmp    102930 <__alltraps>

0010207b <vector51>:
.globl vector51
vector51:
  pushl $0
  10207b:	6a 00                	push   $0x0
  pushl $51
  10207d:	6a 33                	push   $0x33
  jmp __alltraps
  10207f:	e9 ac 08 00 00       	jmp    102930 <__alltraps>

00102084 <vector52>:
.globl vector52
vector52:
  pushl $0
  102084:	6a 00                	push   $0x0
  pushl $52
  102086:	6a 34                	push   $0x34
  jmp __alltraps
  102088:	e9 a3 08 00 00       	jmp    102930 <__alltraps>

0010208d <vector53>:
.globl vector53
vector53:
  pushl $0
  10208d:	6a 00                	push   $0x0
  pushl $53
  10208f:	6a 35                	push   $0x35
  jmp __alltraps
  102091:	e9 9a 08 00 00       	jmp    102930 <__alltraps>

00102096 <vector54>:
.globl vector54
vector54:
  pushl $0
  102096:	6a 00                	push   $0x0
  pushl $54
  102098:	6a 36                	push   $0x36
  jmp __alltraps
  10209a:	e9 91 08 00 00       	jmp    102930 <__alltraps>

0010209f <vector55>:
.globl vector55
vector55:
  pushl $0
  10209f:	6a 00                	push   $0x0
  pushl $55
  1020a1:	6a 37                	push   $0x37
  jmp __alltraps
  1020a3:	e9 88 08 00 00       	jmp    102930 <__alltraps>

001020a8 <vector56>:
.globl vector56
vector56:
  pushl $0
  1020a8:	6a 00                	push   $0x0
  pushl $56
  1020aa:	6a 38                	push   $0x38
  jmp __alltraps
  1020ac:	e9 7f 08 00 00       	jmp    102930 <__alltraps>

001020b1 <vector57>:
.globl vector57
vector57:
  pushl $0
  1020b1:	6a 00                	push   $0x0
  pushl $57
  1020b3:	6a 39                	push   $0x39
  jmp __alltraps
  1020b5:	e9 76 08 00 00       	jmp    102930 <__alltraps>

001020ba <vector58>:
.globl vector58
vector58:
  pushl $0
  1020ba:	6a 00                	push   $0x0
  pushl $58
  1020bc:	6a 3a                	push   $0x3a
  jmp __alltraps
  1020be:	e9 6d 08 00 00       	jmp    102930 <__alltraps>

001020c3 <vector59>:
.globl vector59
vector59:
  pushl $0
  1020c3:	6a 00                	push   $0x0
  pushl $59
  1020c5:	6a 3b                	push   $0x3b
  jmp __alltraps
  1020c7:	e9 64 08 00 00       	jmp    102930 <__alltraps>

001020cc <vector60>:
.globl vector60
vector60:
  pushl $0
  1020cc:	6a 00                	push   $0x0
  pushl $60
  1020ce:	6a 3c                	push   $0x3c
  jmp __alltraps
  1020d0:	e9 5b 08 00 00       	jmp    102930 <__alltraps>

001020d5 <vector61>:
.globl vector61
vector61:
  pushl $0
  1020d5:	6a 00                	push   $0x0
  pushl $61
  1020d7:	6a 3d                	push   $0x3d
  jmp __alltraps
  1020d9:	e9 52 08 00 00       	jmp    102930 <__alltraps>

001020de <vector62>:
.globl vector62
vector62:
  pushl $0
  1020de:	6a 00                	push   $0x0
  pushl $62
  1020e0:	6a 3e                	push   $0x3e
  jmp __alltraps
  1020e2:	e9 49 08 00 00       	jmp    102930 <__alltraps>

001020e7 <vector63>:
.globl vector63
vector63:
  pushl $0
  1020e7:	6a 00                	push   $0x0
  pushl $63
  1020e9:	6a 3f                	push   $0x3f
  jmp __alltraps
  1020eb:	e9 40 08 00 00       	jmp    102930 <__alltraps>

001020f0 <vector64>:
.globl vector64
vector64:
  pushl $0
  1020f0:	6a 00                	push   $0x0
  pushl $64
  1020f2:	6a 40                	push   $0x40
  jmp __alltraps
  1020f4:	e9 37 08 00 00       	jmp    102930 <__alltraps>

001020f9 <vector65>:
.globl vector65
vector65:
  pushl $0
  1020f9:	6a 00                	push   $0x0
  pushl $65
  1020fb:	6a 41                	push   $0x41
  jmp __alltraps
  1020fd:	e9 2e 08 00 00       	jmp    102930 <__alltraps>

00102102 <vector66>:
.globl vector66
vector66:
  pushl $0
  102102:	6a 00                	push   $0x0
  pushl $66
  102104:	6a 42                	push   $0x42
  jmp __alltraps
  102106:	e9 25 08 00 00       	jmp    102930 <__alltraps>

0010210b <vector67>:
.globl vector67
vector67:
  pushl $0
  10210b:	6a 00                	push   $0x0
  pushl $67
  10210d:	6a 43                	push   $0x43
  jmp __alltraps
  10210f:	e9 1c 08 00 00       	jmp    102930 <__alltraps>

00102114 <vector68>:
.globl vector68
vector68:
  pushl $0
  102114:	6a 00                	push   $0x0
  pushl $68
  102116:	6a 44                	push   $0x44
  jmp __alltraps
  102118:	e9 13 08 00 00       	jmp    102930 <__alltraps>

0010211d <vector69>:
.globl vector69
vector69:
  pushl $0
  10211d:	6a 00                	push   $0x0
  pushl $69
  10211f:	6a 45                	push   $0x45
  jmp __alltraps
  102121:	e9 0a 08 00 00       	jmp    102930 <__alltraps>

00102126 <vector70>:
.globl vector70
vector70:
  pushl $0
  102126:	6a 00                	push   $0x0
  pushl $70
  102128:	6a 46                	push   $0x46
  jmp __alltraps
  10212a:	e9 01 08 00 00       	jmp    102930 <__alltraps>

0010212f <vector71>:
.globl vector71
vector71:
  pushl $0
  10212f:	6a 00                	push   $0x0
  pushl $71
  102131:	6a 47                	push   $0x47
  jmp __alltraps
  102133:	e9 f8 07 00 00       	jmp    102930 <__alltraps>

00102138 <vector72>:
.globl vector72
vector72:
  pushl $0
  102138:	6a 00                	push   $0x0
  pushl $72
  10213a:	6a 48                	push   $0x48
  jmp __alltraps
  10213c:	e9 ef 07 00 00       	jmp    102930 <__alltraps>

00102141 <vector73>:
.globl vector73
vector73:
  pushl $0
  102141:	6a 00                	push   $0x0
  pushl $73
  102143:	6a 49                	push   $0x49
  jmp __alltraps
  102145:	e9 e6 07 00 00       	jmp    102930 <__alltraps>

0010214a <vector74>:
.globl vector74
vector74:
  pushl $0
  10214a:	6a 00                	push   $0x0
  pushl $74
  10214c:	6a 4a                	push   $0x4a
  jmp __alltraps
  10214e:	e9 dd 07 00 00       	jmp    102930 <__alltraps>

00102153 <vector75>:
.globl vector75
vector75:
  pushl $0
  102153:	6a 00                	push   $0x0
  pushl $75
  102155:	6a 4b                	push   $0x4b
  jmp __alltraps
  102157:	e9 d4 07 00 00       	jmp    102930 <__alltraps>

0010215c <vector76>:
.globl vector76
vector76:
  pushl $0
  10215c:	6a 00                	push   $0x0
  pushl $76
  10215e:	6a 4c                	push   $0x4c
  jmp __alltraps
  102160:	e9 cb 07 00 00       	jmp    102930 <__alltraps>

00102165 <vector77>:
.globl vector77
vector77:
  pushl $0
  102165:	6a 00                	push   $0x0
  pushl $77
  102167:	6a 4d                	push   $0x4d
  jmp __alltraps
  102169:	e9 c2 07 00 00       	jmp    102930 <__alltraps>

0010216e <vector78>:
.globl vector78
vector78:
  pushl $0
  10216e:	6a 00                	push   $0x0
  pushl $78
  102170:	6a 4e                	push   $0x4e
  jmp __alltraps
  102172:	e9 b9 07 00 00       	jmp    102930 <__alltraps>

00102177 <vector79>:
.globl vector79
vector79:
  pushl $0
  102177:	6a 00                	push   $0x0
  pushl $79
  102179:	6a 4f                	push   $0x4f
  jmp __alltraps
  10217b:	e9 b0 07 00 00       	jmp    102930 <__alltraps>

00102180 <vector80>:
.globl vector80
vector80:
  pushl $0
  102180:	6a 00                	push   $0x0
  pushl $80
  102182:	6a 50                	push   $0x50
  jmp __alltraps
  102184:	e9 a7 07 00 00       	jmp    102930 <__alltraps>

00102189 <vector81>:
.globl vector81
vector81:
  pushl $0
  102189:	6a 00                	push   $0x0
  pushl $81
  10218b:	6a 51                	push   $0x51
  jmp __alltraps
  10218d:	e9 9e 07 00 00       	jmp    102930 <__alltraps>

00102192 <vector82>:
.globl vector82
vector82:
  pushl $0
  102192:	6a 00                	push   $0x0
  pushl $82
  102194:	6a 52                	push   $0x52
  jmp __alltraps
  102196:	e9 95 07 00 00       	jmp    102930 <__alltraps>

0010219b <vector83>:
.globl vector83
vector83:
  pushl $0
  10219b:	6a 00                	push   $0x0
  pushl $83
  10219d:	6a 53                	push   $0x53
  jmp __alltraps
  10219f:	e9 8c 07 00 00       	jmp    102930 <__alltraps>

001021a4 <vector84>:
.globl vector84
vector84:
  pushl $0
  1021a4:	6a 00                	push   $0x0
  pushl $84
  1021a6:	6a 54                	push   $0x54
  jmp __alltraps
  1021a8:	e9 83 07 00 00       	jmp    102930 <__alltraps>

001021ad <vector85>:
.globl vector85
vector85:
  pushl $0
  1021ad:	6a 00                	push   $0x0
  pushl $85
  1021af:	6a 55                	push   $0x55
  jmp __alltraps
  1021b1:	e9 7a 07 00 00       	jmp    102930 <__alltraps>

001021b6 <vector86>:
.globl vector86
vector86:
  pushl $0
  1021b6:	6a 00                	push   $0x0
  pushl $86
  1021b8:	6a 56                	push   $0x56
  jmp __alltraps
  1021ba:	e9 71 07 00 00       	jmp    102930 <__alltraps>

001021bf <vector87>:
.globl vector87
vector87:
  pushl $0
  1021bf:	6a 00                	push   $0x0
  pushl $87
  1021c1:	6a 57                	push   $0x57
  jmp __alltraps
  1021c3:	e9 68 07 00 00       	jmp    102930 <__alltraps>

001021c8 <vector88>:
.globl vector88
vector88:
  pushl $0
  1021c8:	6a 00                	push   $0x0
  pushl $88
  1021ca:	6a 58                	push   $0x58
  jmp __alltraps
  1021cc:	e9 5f 07 00 00       	jmp    102930 <__alltraps>

001021d1 <vector89>:
.globl vector89
vector89:
  pushl $0
  1021d1:	6a 00                	push   $0x0
  pushl $89
  1021d3:	6a 59                	push   $0x59
  jmp __alltraps
  1021d5:	e9 56 07 00 00       	jmp    102930 <__alltraps>

001021da <vector90>:
.globl vector90
vector90:
  pushl $0
  1021da:	6a 00                	push   $0x0
  pushl $90
  1021dc:	6a 5a                	push   $0x5a
  jmp __alltraps
  1021de:	e9 4d 07 00 00       	jmp    102930 <__alltraps>

001021e3 <vector91>:
.globl vector91
vector91:
  pushl $0
  1021e3:	6a 00                	push   $0x0
  pushl $91
  1021e5:	6a 5b                	push   $0x5b
  jmp __alltraps
  1021e7:	e9 44 07 00 00       	jmp    102930 <__alltraps>

001021ec <vector92>:
.globl vector92
vector92:
  pushl $0
  1021ec:	6a 00                	push   $0x0
  pushl $92
  1021ee:	6a 5c                	push   $0x5c
  jmp __alltraps
  1021f0:	e9 3b 07 00 00       	jmp    102930 <__alltraps>

001021f5 <vector93>:
.globl vector93
vector93:
  pushl $0
  1021f5:	6a 00                	push   $0x0
  pushl $93
  1021f7:	6a 5d                	push   $0x5d
  jmp __alltraps
  1021f9:	e9 32 07 00 00       	jmp    102930 <__alltraps>

001021fe <vector94>:
.globl vector94
vector94:
  pushl $0
  1021fe:	6a 00                	push   $0x0
  pushl $94
  102200:	6a 5e                	push   $0x5e
  jmp __alltraps
  102202:	e9 29 07 00 00       	jmp    102930 <__alltraps>

00102207 <vector95>:
.globl vector95
vector95:
  pushl $0
  102207:	6a 00                	push   $0x0
  pushl $95
  102209:	6a 5f                	push   $0x5f
  jmp __alltraps
  10220b:	e9 20 07 00 00       	jmp    102930 <__alltraps>

00102210 <vector96>:
.globl vector96
vector96:
  pushl $0
  102210:	6a 00                	push   $0x0
  pushl $96
  102212:	6a 60                	push   $0x60
  jmp __alltraps
  102214:	e9 17 07 00 00       	jmp    102930 <__alltraps>

00102219 <vector97>:
.globl vector97
vector97:
  pushl $0
  102219:	6a 00                	push   $0x0
  pushl $97
  10221b:	6a 61                	push   $0x61
  jmp __alltraps
  10221d:	e9 0e 07 00 00       	jmp    102930 <__alltraps>

00102222 <vector98>:
.globl vector98
vector98:
  pushl $0
  102222:	6a 00                	push   $0x0
  pushl $98
  102224:	6a 62                	push   $0x62
  jmp __alltraps
  102226:	e9 05 07 00 00       	jmp    102930 <__alltraps>

0010222b <vector99>:
.globl vector99
vector99:
  pushl $0
  10222b:	6a 00                	push   $0x0
  pushl $99
  10222d:	6a 63                	push   $0x63
  jmp __alltraps
  10222f:	e9 fc 06 00 00       	jmp    102930 <__alltraps>

00102234 <vector100>:
.globl vector100
vector100:
  pushl $0
  102234:	6a 00                	push   $0x0
  pushl $100
  102236:	6a 64                	push   $0x64
  jmp __alltraps
  102238:	e9 f3 06 00 00       	jmp    102930 <__alltraps>

0010223d <vector101>:
.globl vector101
vector101:
  pushl $0
  10223d:	6a 00                	push   $0x0
  pushl $101
  10223f:	6a 65                	push   $0x65
  jmp __alltraps
  102241:	e9 ea 06 00 00       	jmp    102930 <__alltraps>

00102246 <vector102>:
.globl vector102
vector102:
  pushl $0
  102246:	6a 00                	push   $0x0
  pushl $102
  102248:	6a 66                	push   $0x66
  jmp __alltraps
  10224a:	e9 e1 06 00 00       	jmp    102930 <__alltraps>

0010224f <vector103>:
.globl vector103
vector103:
  pushl $0
  10224f:	6a 00                	push   $0x0
  pushl $103
  102251:	6a 67                	push   $0x67
  jmp __alltraps
  102253:	e9 d8 06 00 00       	jmp    102930 <__alltraps>

00102258 <vector104>:
.globl vector104
vector104:
  pushl $0
  102258:	6a 00                	push   $0x0
  pushl $104
  10225a:	6a 68                	push   $0x68
  jmp __alltraps
  10225c:	e9 cf 06 00 00       	jmp    102930 <__alltraps>

00102261 <vector105>:
.globl vector105
vector105:
  pushl $0
  102261:	6a 00                	push   $0x0
  pushl $105
  102263:	6a 69                	push   $0x69
  jmp __alltraps
  102265:	e9 c6 06 00 00       	jmp    102930 <__alltraps>

0010226a <vector106>:
.globl vector106
vector106:
  pushl $0
  10226a:	6a 00                	push   $0x0
  pushl $106
  10226c:	6a 6a                	push   $0x6a
  jmp __alltraps
  10226e:	e9 bd 06 00 00       	jmp    102930 <__alltraps>

00102273 <vector107>:
.globl vector107
vector107:
  pushl $0
  102273:	6a 00                	push   $0x0
  pushl $107
  102275:	6a 6b                	push   $0x6b
  jmp __alltraps
  102277:	e9 b4 06 00 00       	jmp    102930 <__alltraps>

0010227c <vector108>:
.globl vector108
vector108:
  pushl $0
  10227c:	6a 00                	push   $0x0
  pushl $108
  10227e:	6a 6c                	push   $0x6c
  jmp __alltraps
  102280:	e9 ab 06 00 00       	jmp    102930 <__alltraps>

00102285 <vector109>:
.globl vector109
vector109:
  pushl $0
  102285:	6a 00                	push   $0x0
  pushl $109
  102287:	6a 6d                	push   $0x6d
  jmp __alltraps
  102289:	e9 a2 06 00 00       	jmp    102930 <__alltraps>

0010228e <vector110>:
.globl vector110
vector110:
  pushl $0
  10228e:	6a 00                	push   $0x0
  pushl $110
  102290:	6a 6e                	push   $0x6e
  jmp __alltraps
  102292:	e9 99 06 00 00       	jmp    102930 <__alltraps>

00102297 <vector111>:
.globl vector111
vector111:
  pushl $0
  102297:	6a 00                	push   $0x0
  pushl $111
  102299:	6a 6f                	push   $0x6f
  jmp __alltraps
  10229b:	e9 90 06 00 00       	jmp    102930 <__alltraps>

001022a0 <vector112>:
.globl vector112
vector112:
  pushl $0
  1022a0:	6a 00                	push   $0x0
  pushl $112
  1022a2:	6a 70                	push   $0x70
  jmp __alltraps
  1022a4:	e9 87 06 00 00       	jmp    102930 <__alltraps>

001022a9 <vector113>:
.globl vector113
vector113:
  pushl $0
  1022a9:	6a 00                	push   $0x0
  pushl $113
  1022ab:	6a 71                	push   $0x71
  jmp __alltraps
  1022ad:	e9 7e 06 00 00       	jmp    102930 <__alltraps>

001022b2 <vector114>:
.globl vector114
vector114:
  pushl $0
  1022b2:	6a 00                	push   $0x0
  pushl $114
  1022b4:	6a 72                	push   $0x72
  jmp __alltraps
  1022b6:	e9 75 06 00 00       	jmp    102930 <__alltraps>

001022bb <vector115>:
.globl vector115
vector115:
  pushl $0
  1022bb:	6a 00                	push   $0x0
  pushl $115
  1022bd:	6a 73                	push   $0x73
  jmp __alltraps
  1022bf:	e9 6c 06 00 00       	jmp    102930 <__alltraps>

001022c4 <vector116>:
.globl vector116
vector116:
  pushl $0
  1022c4:	6a 00                	push   $0x0
  pushl $116
  1022c6:	6a 74                	push   $0x74
  jmp __alltraps
  1022c8:	e9 63 06 00 00       	jmp    102930 <__alltraps>

001022cd <vector117>:
.globl vector117
vector117:
  pushl $0
  1022cd:	6a 00                	push   $0x0
  pushl $117
  1022cf:	6a 75                	push   $0x75
  jmp __alltraps
  1022d1:	e9 5a 06 00 00       	jmp    102930 <__alltraps>

001022d6 <vector118>:
.globl vector118
vector118:
  pushl $0
  1022d6:	6a 00                	push   $0x0
  pushl $118
  1022d8:	6a 76                	push   $0x76
  jmp __alltraps
  1022da:	e9 51 06 00 00       	jmp    102930 <__alltraps>

001022df <vector119>:
.globl vector119
vector119:
  pushl $0
  1022df:	6a 00                	push   $0x0
  pushl $119
  1022e1:	6a 77                	push   $0x77
  jmp __alltraps
  1022e3:	e9 48 06 00 00       	jmp    102930 <__alltraps>

001022e8 <vector120>:
.globl vector120
vector120:
  pushl $0
  1022e8:	6a 00                	push   $0x0
  pushl $120
  1022ea:	6a 78                	push   $0x78
  jmp __alltraps
  1022ec:	e9 3f 06 00 00       	jmp    102930 <__alltraps>

001022f1 <vector121>:
.globl vector121
vector121:
  pushl $0
  1022f1:	6a 00                	push   $0x0
  pushl $121
  1022f3:	6a 79                	push   $0x79
  jmp __alltraps
  1022f5:	e9 36 06 00 00       	jmp    102930 <__alltraps>

001022fa <vector122>:
.globl vector122
vector122:
  pushl $0
  1022fa:	6a 00                	push   $0x0
  pushl $122
  1022fc:	6a 7a                	push   $0x7a
  jmp __alltraps
  1022fe:	e9 2d 06 00 00       	jmp    102930 <__alltraps>

00102303 <vector123>:
.globl vector123
vector123:
  pushl $0
  102303:	6a 00                	push   $0x0
  pushl $123
  102305:	6a 7b                	push   $0x7b
  jmp __alltraps
  102307:	e9 24 06 00 00       	jmp    102930 <__alltraps>

0010230c <vector124>:
.globl vector124
vector124:
  pushl $0
  10230c:	6a 00                	push   $0x0
  pushl $124
  10230e:	6a 7c                	push   $0x7c
  jmp __alltraps
  102310:	e9 1b 06 00 00       	jmp    102930 <__alltraps>

00102315 <vector125>:
.globl vector125
vector125:
  pushl $0
  102315:	6a 00                	push   $0x0
  pushl $125
  102317:	6a 7d                	push   $0x7d
  jmp __alltraps
  102319:	e9 12 06 00 00       	jmp    102930 <__alltraps>

0010231e <vector126>:
.globl vector126
vector126:
  pushl $0
  10231e:	6a 00                	push   $0x0
  pushl $126
  102320:	6a 7e                	push   $0x7e
  jmp __alltraps
  102322:	e9 09 06 00 00       	jmp    102930 <__alltraps>

00102327 <vector127>:
.globl vector127
vector127:
  pushl $0
  102327:	6a 00                	push   $0x0
  pushl $127
  102329:	6a 7f                	push   $0x7f
  jmp __alltraps
  10232b:	e9 00 06 00 00       	jmp    102930 <__alltraps>

00102330 <vector128>:
.globl vector128
vector128:
  pushl $0
  102330:	6a 00                	push   $0x0
  pushl $128
  102332:	68 80 00 00 00       	push   $0x80
  jmp __alltraps
  102337:	e9 f4 05 00 00       	jmp    102930 <__alltraps>

0010233c <vector129>:
.globl vector129
vector129:
  pushl $0
  10233c:	6a 00                	push   $0x0
  pushl $129
  10233e:	68 81 00 00 00       	push   $0x81
  jmp __alltraps
  102343:	e9 e8 05 00 00       	jmp    102930 <__alltraps>

00102348 <vector130>:
.globl vector130
vector130:
  pushl $0
  102348:	6a 00                	push   $0x0
  pushl $130
  10234a:	68 82 00 00 00       	push   $0x82
  jmp __alltraps
  10234f:	e9 dc 05 00 00       	jmp    102930 <__alltraps>

00102354 <vector131>:
.globl vector131
vector131:
  pushl $0
  102354:	6a 00                	push   $0x0
  pushl $131
  102356:	68 83 00 00 00       	push   $0x83
  jmp __alltraps
  10235b:	e9 d0 05 00 00       	jmp    102930 <__alltraps>

00102360 <vector132>:
.globl vector132
vector132:
  pushl $0
  102360:	6a 00                	push   $0x0
  pushl $132
  102362:	68 84 00 00 00       	push   $0x84
  jmp __alltraps
  102367:	e9 c4 05 00 00       	jmp    102930 <__alltraps>

0010236c <vector133>:
.globl vector133
vector133:
  pushl $0
  10236c:	6a 00                	push   $0x0
  pushl $133
  10236e:	68 85 00 00 00       	push   $0x85
  jmp __alltraps
  102373:	e9 b8 05 00 00       	jmp    102930 <__alltraps>

00102378 <vector134>:
.globl vector134
vector134:
  pushl $0
  102378:	6a 00                	push   $0x0
  pushl $134
  10237a:	68 86 00 00 00       	push   $0x86
  jmp __alltraps
  10237f:	e9 ac 05 00 00       	jmp    102930 <__alltraps>

00102384 <vector135>:
.globl vector135
vector135:
  pushl $0
  102384:	6a 00                	push   $0x0
  pushl $135
  102386:	68 87 00 00 00       	push   $0x87
  jmp __alltraps
  10238b:	e9 a0 05 00 00       	jmp    102930 <__alltraps>

00102390 <vector136>:
.globl vector136
vector136:
  pushl $0
  102390:	6a 00                	push   $0x0
  pushl $136
  102392:	68 88 00 00 00       	push   $0x88
  jmp __alltraps
  102397:	e9 94 05 00 00       	jmp    102930 <__alltraps>

0010239c <vector137>:
.globl vector137
vector137:
  pushl $0
  10239c:	6a 00                	push   $0x0
  pushl $137
  10239e:	68 89 00 00 00       	push   $0x89
  jmp __alltraps
  1023a3:	e9 88 05 00 00       	jmp    102930 <__alltraps>

001023a8 <vector138>:
.globl vector138
vector138:
  pushl $0
  1023a8:	6a 00                	push   $0x0
  pushl $138
  1023aa:	68 8a 00 00 00       	push   $0x8a
  jmp __alltraps
  1023af:	e9 7c 05 00 00       	jmp    102930 <__alltraps>

001023b4 <vector139>:
.globl vector139
vector139:
  pushl $0
  1023b4:	6a 00                	push   $0x0
  pushl $139
  1023b6:	68 8b 00 00 00       	push   $0x8b
  jmp __alltraps
  1023bb:	e9 70 05 00 00       	jmp    102930 <__alltraps>

001023c0 <vector140>:
.globl vector140
vector140:
  pushl $0
  1023c0:	6a 00                	push   $0x0
  pushl $140
  1023c2:	68 8c 00 00 00       	push   $0x8c
  jmp __alltraps
  1023c7:	e9 64 05 00 00       	jmp    102930 <__alltraps>

001023cc <vector141>:
.globl vector141
vector141:
  pushl $0
  1023cc:	6a 00                	push   $0x0
  pushl $141
  1023ce:	68 8d 00 00 00       	push   $0x8d
  jmp __alltraps
  1023d3:	e9 58 05 00 00       	jmp    102930 <__alltraps>

001023d8 <vector142>:
.globl vector142
vector142:
  pushl $0
  1023d8:	6a 00                	push   $0x0
  pushl $142
  1023da:	68 8e 00 00 00       	push   $0x8e
  jmp __alltraps
  1023df:	e9 4c 05 00 00       	jmp    102930 <__alltraps>

001023e4 <vector143>:
.globl vector143
vector143:
  pushl $0
  1023e4:	6a 00                	push   $0x0
  pushl $143
  1023e6:	68 8f 00 00 00       	push   $0x8f
  jmp __alltraps
  1023eb:	e9 40 05 00 00       	jmp    102930 <__alltraps>

001023f0 <vector144>:
.globl vector144
vector144:
  pushl $0
  1023f0:	6a 00                	push   $0x0
  pushl $144
  1023f2:	68 90 00 00 00       	push   $0x90
  jmp __alltraps
  1023f7:	e9 34 05 00 00       	jmp    102930 <__alltraps>

001023fc <vector145>:
.globl vector145
vector145:
  pushl $0
  1023fc:	6a 00                	push   $0x0
  pushl $145
  1023fe:	68 91 00 00 00       	push   $0x91
  jmp __alltraps
  102403:	e9 28 05 00 00       	jmp    102930 <__alltraps>

00102408 <vector146>:
.globl vector146
vector146:
  pushl $0
  102408:	6a 00                	push   $0x0
  pushl $146
  10240a:	68 92 00 00 00       	push   $0x92
  jmp __alltraps
  10240f:	e9 1c 05 00 00       	jmp    102930 <__alltraps>

00102414 <vector147>:
.globl vector147
vector147:
  pushl $0
  102414:	6a 00                	push   $0x0
  pushl $147
  102416:	68 93 00 00 00       	push   $0x93
  jmp __alltraps
  10241b:	e9 10 05 00 00       	jmp    102930 <__alltraps>

00102420 <vector148>:
.globl vector148
vector148:
  pushl $0
  102420:	6a 00                	push   $0x0
  pushl $148
  102422:	68 94 00 00 00       	push   $0x94
  jmp __alltraps
  102427:	e9 04 05 00 00       	jmp    102930 <__alltraps>

0010242c <vector149>:
.globl vector149
vector149:
  pushl $0
  10242c:	6a 00                	push   $0x0
  pushl $149
  10242e:	68 95 00 00 00       	push   $0x95
  jmp __alltraps
  102433:	e9 f8 04 00 00       	jmp    102930 <__alltraps>

00102438 <vector150>:
.globl vector150
vector150:
  pushl $0
  102438:	6a 00                	push   $0x0
  pushl $150
  10243a:	68 96 00 00 00       	push   $0x96
  jmp __alltraps
  10243f:	e9 ec 04 00 00       	jmp    102930 <__alltraps>

00102444 <vector151>:
.globl vector151
vector151:
  pushl $0
  102444:	6a 00                	push   $0x0
  pushl $151
  102446:	68 97 00 00 00       	push   $0x97
  jmp __alltraps
  10244b:	e9 e0 04 00 00       	jmp    102930 <__alltraps>

00102450 <vector152>:
.globl vector152
vector152:
  pushl $0
  102450:	6a 00                	push   $0x0
  pushl $152
  102452:	68 98 00 00 00       	push   $0x98
  jmp __alltraps
  102457:	e9 d4 04 00 00       	jmp    102930 <__alltraps>

0010245c <vector153>:
.globl vector153
vector153:
  pushl $0
  10245c:	6a 00                	push   $0x0
  pushl $153
  10245e:	68 99 00 00 00       	push   $0x99
  jmp __alltraps
  102463:	e9 c8 04 00 00       	jmp    102930 <__alltraps>

00102468 <vector154>:
.globl vector154
vector154:
  pushl $0
  102468:	6a 00                	push   $0x0
  pushl $154
  10246a:	68 9a 00 00 00       	push   $0x9a
  jmp __alltraps
  10246f:	e9 bc 04 00 00       	jmp    102930 <__alltraps>

00102474 <vector155>:
.globl vector155
vector155:
  pushl $0
  102474:	6a 00                	push   $0x0
  pushl $155
  102476:	68 9b 00 00 00       	push   $0x9b
  jmp __alltraps
  10247b:	e9 b0 04 00 00       	jmp    102930 <__alltraps>

00102480 <vector156>:
.globl vector156
vector156:
  pushl $0
  102480:	6a 00                	push   $0x0
  pushl $156
  102482:	68 9c 00 00 00       	push   $0x9c
  jmp __alltraps
  102487:	e9 a4 04 00 00       	jmp    102930 <__alltraps>

0010248c <vector157>:
.globl vector157
vector157:
  pushl $0
  10248c:	6a 00                	push   $0x0
  pushl $157
  10248e:	68 9d 00 00 00       	push   $0x9d
  jmp __alltraps
  102493:	e9 98 04 00 00       	jmp    102930 <__alltraps>

00102498 <vector158>:
.globl vector158
vector158:
  pushl $0
  102498:	6a 00                	push   $0x0
  pushl $158
  10249a:	68 9e 00 00 00       	push   $0x9e
  jmp __alltraps
  10249f:	e9 8c 04 00 00       	jmp    102930 <__alltraps>

001024a4 <vector159>:
.globl vector159
vector159:
  pushl $0
  1024a4:	6a 00                	push   $0x0
  pushl $159
  1024a6:	68 9f 00 00 00       	push   $0x9f
  jmp __alltraps
  1024ab:	e9 80 04 00 00       	jmp    102930 <__alltraps>

001024b0 <vector160>:
.globl vector160
vector160:
  pushl $0
  1024b0:	6a 00                	push   $0x0
  pushl $160
  1024b2:	68 a0 00 00 00       	push   $0xa0
  jmp __alltraps
  1024b7:	e9 74 04 00 00       	jmp    102930 <__alltraps>

001024bc <vector161>:
.globl vector161
vector161:
  pushl $0
  1024bc:	6a 00                	push   $0x0
  pushl $161
  1024be:	68 a1 00 00 00       	push   $0xa1
  jmp __alltraps
  1024c3:	e9 68 04 00 00       	jmp    102930 <__alltraps>

001024c8 <vector162>:
.globl vector162
vector162:
  pushl $0
  1024c8:	6a 00                	push   $0x0
  pushl $162
  1024ca:	68 a2 00 00 00       	push   $0xa2
  jmp __alltraps
  1024cf:	e9 5c 04 00 00       	jmp    102930 <__alltraps>

001024d4 <vector163>:
.globl vector163
vector163:
  pushl $0
  1024d4:	6a 00                	push   $0x0
  pushl $163
  1024d6:	68 a3 00 00 00       	push   $0xa3
  jmp __alltraps
  1024db:	e9 50 04 00 00       	jmp    102930 <__alltraps>

001024e0 <vector164>:
.globl vector164
vector164:
  pushl $0
  1024e0:	6a 00                	push   $0x0
  pushl $164
  1024e2:	68 a4 00 00 00       	push   $0xa4
  jmp __alltraps
  1024e7:	e9 44 04 00 00       	jmp    102930 <__alltraps>

001024ec <vector165>:
.globl vector165
vector165:
  pushl $0
  1024ec:	6a 00                	push   $0x0
  pushl $165
  1024ee:	68 a5 00 00 00       	push   $0xa5
  jmp __alltraps
  1024f3:	e9 38 04 00 00       	jmp    102930 <__alltraps>

001024f8 <vector166>:
.globl vector166
vector166:
  pushl $0
  1024f8:	6a 00                	push   $0x0
  pushl $166
  1024fa:	68 a6 00 00 00       	push   $0xa6
  jmp __alltraps
  1024ff:	e9 2c 04 00 00       	jmp    102930 <__alltraps>

00102504 <vector167>:
.globl vector167
vector167:
  pushl $0
  102504:	6a 00                	push   $0x0
  pushl $167
  102506:	68 a7 00 00 00       	push   $0xa7
  jmp __alltraps
  10250b:	e9 20 04 00 00       	jmp    102930 <__alltraps>

00102510 <vector168>:
.globl vector168
vector168:
  pushl $0
  102510:	6a 00                	push   $0x0
  pushl $168
  102512:	68 a8 00 00 00       	push   $0xa8
  jmp __alltraps
  102517:	e9 14 04 00 00       	jmp    102930 <__alltraps>

0010251c <vector169>:
.globl vector169
vector169:
  pushl $0
  10251c:	6a 00                	push   $0x0
  pushl $169
  10251e:	68 a9 00 00 00       	push   $0xa9
  jmp __alltraps
  102523:	e9 08 04 00 00       	jmp    102930 <__alltraps>

00102528 <vector170>:
.globl vector170
vector170:
  pushl $0
  102528:	6a 00                	push   $0x0
  pushl $170
  10252a:	68 aa 00 00 00       	push   $0xaa
  jmp __alltraps
  10252f:	e9 fc 03 00 00       	jmp    102930 <__alltraps>

00102534 <vector171>:
.globl vector171
vector171:
  pushl $0
  102534:	6a 00                	push   $0x0
  pushl $171
  102536:	68 ab 00 00 00       	push   $0xab
  jmp __alltraps
  10253b:	e9 f0 03 00 00       	jmp    102930 <__alltraps>

00102540 <vector172>:
.globl vector172
vector172:
  pushl $0
  102540:	6a 00                	push   $0x0
  pushl $172
  102542:	68 ac 00 00 00       	push   $0xac
  jmp __alltraps
  102547:	e9 e4 03 00 00       	jmp    102930 <__alltraps>

0010254c <vector173>:
.globl vector173
vector173:
  pushl $0
  10254c:	6a 00                	push   $0x0
  pushl $173
  10254e:	68 ad 00 00 00       	push   $0xad
  jmp __alltraps
  102553:	e9 d8 03 00 00       	jmp    102930 <__alltraps>

00102558 <vector174>:
.globl vector174
vector174:
  pushl $0
  102558:	6a 00                	push   $0x0
  pushl $174
  10255a:	68 ae 00 00 00       	push   $0xae
  jmp __alltraps
  10255f:	e9 cc 03 00 00       	jmp    102930 <__alltraps>

00102564 <vector175>:
.globl vector175
vector175:
  pushl $0
  102564:	6a 00                	push   $0x0
  pushl $175
  102566:	68 af 00 00 00       	push   $0xaf
  jmp __alltraps
  10256b:	e9 c0 03 00 00       	jmp    102930 <__alltraps>

00102570 <vector176>:
.globl vector176
vector176:
  pushl $0
  102570:	6a 00                	push   $0x0
  pushl $176
  102572:	68 b0 00 00 00       	push   $0xb0
  jmp __alltraps
  102577:	e9 b4 03 00 00       	jmp    102930 <__alltraps>

0010257c <vector177>:
.globl vector177
vector177:
  pushl $0
  10257c:	6a 00                	push   $0x0
  pushl $177
  10257e:	68 b1 00 00 00       	push   $0xb1
  jmp __alltraps
  102583:	e9 a8 03 00 00       	jmp    102930 <__alltraps>

00102588 <vector178>:
.globl vector178
vector178:
  pushl $0
  102588:	6a 00                	push   $0x0
  pushl $178
  10258a:	68 b2 00 00 00       	push   $0xb2
  jmp __alltraps
  10258f:	e9 9c 03 00 00       	jmp    102930 <__alltraps>

00102594 <vector179>:
.globl vector179
vector179:
  pushl $0
  102594:	6a 00                	push   $0x0
  pushl $179
  102596:	68 b3 00 00 00       	push   $0xb3
  jmp __alltraps
  10259b:	e9 90 03 00 00       	jmp    102930 <__alltraps>

001025a0 <vector180>:
.globl vector180
vector180:
  pushl $0
  1025a0:	6a 00                	push   $0x0
  pushl $180
  1025a2:	68 b4 00 00 00       	push   $0xb4
  jmp __alltraps
  1025a7:	e9 84 03 00 00       	jmp    102930 <__alltraps>

001025ac <vector181>:
.globl vector181
vector181:
  pushl $0
  1025ac:	6a 00                	push   $0x0
  pushl $181
  1025ae:	68 b5 00 00 00       	push   $0xb5
  jmp __alltraps
  1025b3:	e9 78 03 00 00       	jmp    102930 <__alltraps>

001025b8 <vector182>:
.globl vector182
vector182:
  pushl $0
  1025b8:	6a 00                	push   $0x0
  pushl $182
  1025ba:	68 b6 00 00 00       	push   $0xb6
  jmp __alltraps
  1025bf:	e9 6c 03 00 00       	jmp    102930 <__alltraps>

001025c4 <vector183>:
.globl vector183
vector183:
  pushl $0
  1025c4:	6a 00                	push   $0x0
  pushl $183
  1025c6:	68 b7 00 00 00       	push   $0xb7
  jmp __alltraps
  1025cb:	e9 60 03 00 00       	jmp    102930 <__alltraps>

001025d0 <vector184>:
.globl vector184
vector184:
  pushl $0
  1025d0:	6a 00                	push   $0x0
  pushl $184
  1025d2:	68 b8 00 00 00       	push   $0xb8
  jmp __alltraps
  1025d7:	e9 54 03 00 00       	jmp    102930 <__alltraps>

001025dc <vector185>:
.globl vector185
vector185:
  pushl $0
  1025dc:	6a 00                	push   $0x0
  pushl $185
  1025de:	68 b9 00 00 00       	push   $0xb9
  jmp __alltraps
  1025e3:	e9 48 03 00 00       	jmp    102930 <__alltraps>

001025e8 <vector186>:
.globl vector186
vector186:
  pushl $0
  1025e8:	6a 00                	push   $0x0
  pushl $186
  1025ea:	68 ba 00 00 00       	push   $0xba
  jmp __alltraps
  1025ef:	e9 3c 03 00 00       	jmp    102930 <__alltraps>

001025f4 <vector187>:
.globl vector187
vector187:
  pushl $0
  1025f4:	6a 00                	push   $0x0
  pushl $187
  1025f6:	68 bb 00 00 00       	push   $0xbb
  jmp __alltraps
  1025fb:	e9 30 03 00 00       	jmp    102930 <__alltraps>

00102600 <vector188>:
.globl vector188
vector188:
  pushl $0
  102600:	6a 00                	push   $0x0
  pushl $188
  102602:	68 bc 00 00 00       	push   $0xbc
  jmp __alltraps
  102607:	e9 24 03 00 00       	jmp    102930 <__alltraps>

0010260c <vector189>:
.globl vector189
vector189:
  pushl $0
  10260c:	6a 00                	push   $0x0
  pushl $189
  10260e:	68 bd 00 00 00       	push   $0xbd
  jmp __alltraps
  102613:	e9 18 03 00 00       	jmp    102930 <__alltraps>

00102618 <vector190>:
.globl vector190
vector190:
  pushl $0
  102618:	6a 00                	push   $0x0
  pushl $190
  10261a:	68 be 00 00 00       	push   $0xbe
  jmp __alltraps
  10261f:	e9 0c 03 00 00       	jmp    102930 <__alltraps>

00102624 <vector191>:
.globl vector191
vector191:
  pushl $0
  102624:	6a 00                	push   $0x0
  pushl $191
  102626:	68 bf 00 00 00       	push   $0xbf
  jmp __alltraps
  10262b:	e9 00 03 00 00       	jmp    102930 <__alltraps>

00102630 <vector192>:
.globl vector192
vector192:
  pushl $0
  102630:	6a 00                	push   $0x0
  pushl $192
  102632:	68 c0 00 00 00       	push   $0xc0
  jmp __alltraps
  102637:	e9 f4 02 00 00       	jmp    102930 <__alltraps>

0010263c <vector193>:
.globl vector193
vector193:
  pushl $0
  10263c:	6a 00                	push   $0x0
  pushl $193
  10263e:	68 c1 00 00 00       	push   $0xc1
  jmp __alltraps
  102643:	e9 e8 02 00 00       	jmp    102930 <__alltraps>

00102648 <vector194>:
.globl vector194
vector194:
  pushl $0
  102648:	6a 00                	push   $0x0
  pushl $194
  10264a:	68 c2 00 00 00       	push   $0xc2
  jmp __alltraps
  10264f:	e9 dc 02 00 00       	jmp    102930 <__alltraps>

00102654 <vector195>:
.globl vector195
vector195:
  pushl $0
  102654:	6a 00                	push   $0x0
  pushl $195
  102656:	68 c3 00 00 00       	push   $0xc3
  jmp __alltraps
  10265b:	e9 d0 02 00 00       	jmp    102930 <__alltraps>

00102660 <vector196>:
.globl vector196
vector196:
  pushl $0
  102660:	6a 00                	push   $0x0
  pushl $196
  102662:	68 c4 00 00 00       	push   $0xc4
  jmp __alltraps
  102667:	e9 c4 02 00 00       	jmp    102930 <__alltraps>

0010266c <vector197>:
.globl vector197
vector197:
  pushl $0
  10266c:	6a 00                	push   $0x0
  pushl $197
  10266e:	68 c5 00 00 00       	push   $0xc5
  jmp __alltraps
  102673:	e9 b8 02 00 00       	jmp    102930 <__alltraps>

00102678 <vector198>:
.globl vector198
vector198:
  pushl $0
  102678:	6a 00                	push   $0x0
  pushl $198
  10267a:	68 c6 00 00 00       	push   $0xc6
  jmp __alltraps
  10267f:	e9 ac 02 00 00       	jmp    102930 <__alltraps>

00102684 <vector199>:
.globl vector199
vector199:
  pushl $0
  102684:	6a 00                	push   $0x0
  pushl $199
  102686:	68 c7 00 00 00       	push   $0xc7
  jmp __alltraps
  10268b:	e9 a0 02 00 00       	jmp    102930 <__alltraps>

00102690 <vector200>:
.globl vector200
vector200:
  pushl $0
  102690:	6a 00                	push   $0x0
  pushl $200
  102692:	68 c8 00 00 00       	push   $0xc8
  jmp __alltraps
  102697:	e9 94 02 00 00       	jmp    102930 <__alltraps>

0010269c <vector201>:
.globl vector201
vector201:
  pushl $0
  10269c:	6a 00                	push   $0x0
  pushl $201
  10269e:	68 c9 00 00 00       	push   $0xc9
  jmp __alltraps
  1026a3:	e9 88 02 00 00       	jmp    102930 <__alltraps>

001026a8 <vector202>:
.globl vector202
vector202:
  pushl $0
  1026a8:	6a 00                	push   $0x0
  pushl $202
  1026aa:	68 ca 00 00 00       	push   $0xca
  jmp __alltraps
  1026af:	e9 7c 02 00 00       	jmp    102930 <__alltraps>

001026b4 <vector203>:
.globl vector203
vector203:
  pushl $0
  1026b4:	6a 00                	push   $0x0
  pushl $203
  1026b6:	68 cb 00 00 00       	push   $0xcb
  jmp __alltraps
  1026bb:	e9 70 02 00 00       	jmp    102930 <__alltraps>

001026c0 <vector204>:
.globl vector204
vector204:
  pushl $0
  1026c0:	6a 00                	push   $0x0
  pushl $204
  1026c2:	68 cc 00 00 00       	push   $0xcc
  jmp __alltraps
  1026c7:	e9 64 02 00 00       	jmp    102930 <__alltraps>

001026cc <vector205>:
.globl vector205
vector205:
  pushl $0
  1026cc:	6a 00                	push   $0x0
  pushl $205
  1026ce:	68 cd 00 00 00       	push   $0xcd
  jmp __alltraps
  1026d3:	e9 58 02 00 00       	jmp    102930 <__alltraps>

001026d8 <vector206>:
.globl vector206
vector206:
  pushl $0
  1026d8:	6a 00                	push   $0x0
  pushl $206
  1026da:	68 ce 00 00 00       	push   $0xce
  jmp __alltraps
  1026df:	e9 4c 02 00 00       	jmp    102930 <__alltraps>

001026e4 <vector207>:
.globl vector207
vector207:
  pushl $0
  1026e4:	6a 00                	push   $0x0
  pushl $207
  1026e6:	68 cf 00 00 00       	push   $0xcf
  jmp __alltraps
  1026eb:	e9 40 02 00 00       	jmp    102930 <__alltraps>

001026f0 <vector208>:
.globl vector208
vector208:
  pushl $0
  1026f0:	6a 00                	push   $0x0
  pushl $208
  1026f2:	68 d0 00 00 00       	push   $0xd0
  jmp __alltraps
  1026f7:	e9 34 02 00 00       	jmp    102930 <__alltraps>

001026fc <vector209>:
.globl vector209
vector209:
  pushl $0
  1026fc:	6a 00                	push   $0x0
  pushl $209
  1026fe:	68 d1 00 00 00       	push   $0xd1
  jmp __alltraps
  102703:	e9 28 02 00 00       	jmp    102930 <__alltraps>

00102708 <vector210>:
.globl vector210
vector210:
  pushl $0
  102708:	6a 00                	push   $0x0
  pushl $210
  10270a:	68 d2 00 00 00       	push   $0xd2
  jmp __alltraps
  10270f:	e9 1c 02 00 00       	jmp    102930 <__alltraps>

00102714 <vector211>:
.globl vector211
vector211:
  pushl $0
  102714:	6a 00                	push   $0x0
  pushl $211
  102716:	68 d3 00 00 00       	push   $0xd3
  jmp __alltraps
  10271b:	e9 10 02 00 00       	jmp    102930 <__alltraps>

00102720 <vector212>:
.globl vector212
vector212:
  pushl $0
  102720:	6a 00                	push   $0x0
  pushl $212
  102722:	68 d4 00 00 00       	push   $0xd4
  jmp __alltraps
  102727:	e9 04 02 00 00       	jmp    102930 <__alltraps>

0010272c <vector213>:
.globl vector213
vector213:
  pushl $0
  10272c:	6a 00                	push   $0x0
  pushl $213
  10272e:	68 d5 00 00 00       	push   $0xd5
  jmp __alltraps
  102733:	e9 f8 01 00 00       	jmp    102930 <__alltraps>

00102738 <vector214>:
.globl vector214
vector214:
  pushl $0
  102738:	6a 00                	push   $0x0
  pushl $214
  10273a:	68 d6 00 00 00       	push   $0xd6
  jmp __alltraps
  10273f:	e9 ec 01 00 00       	jmp    102930 <__alltraps>

00102744 <vector215>:
.globl vector215
vector215:
  pushl $0
  102744:	6a 00                	push   $0x0
  pushl $215
  102746:	68 d7 00 00 00       	push   $0xd7
  jmp __alltraps
  10274b:	e9 e0 01 00 00       	jmp    102930 <__alltraps>

00102750 <vector216>:
.globl vector216
vector216:
  pushl $0
  102750:	6a 00                	push   $0x0
  pushl $216
  102752:	68 d8 00 00 00       	push   $0xd8
  jmp __alltraps
  102757:	e9 d4 01 00 00       	jmp    102930 <__alltraps>

0010275c <vector217>:
.globl vector217
vector217:
  pushl $0
  10275c:	6a 00                	push   $0x0
  pushl $217
  10275e:	68 d9 00 00 00       	push   $0xd9
  jmp __alltraps
  102763:	e9 c8 01 00 00       	jmp    102930 <__alltraps>

00102768 <vector218>:
.globl vector218
vector218:
  pushl $0
  102768:	6a 00                	push   $0x0
  pushl $218
  10276a:	68 da 00 00 00       	push   $0xda
  jmp __alltraps
  10276f:	e9 bc 01 00 00       	jmp    102930 <__alltraps>

00102774 <vector219>:
.globl vector219
vector219:
  pushl $0
  102774:	6a 00                	push   $0x0
  pushl $219
  102776:	68 db 00 00 00       	push   $0xdb
  jmp __alltraps
  10277b:	e9 b0 01 00 00       	jmp    102930 <__alltraps>

00102780 <vector220>:
.globl vector220
vector220:
  pushl $0
  102780:	6a 00                	push   $0x0
  pushl $220
  102782:	68 dc 00 00 00       	push   $0xdc
  jmp __alltraps
  102787:	e9 a4 01 00 00       	jmp    102930 <__alltraps>

0010278c <vector221>:
.globl vector221
vector221:
  pushl $0
  10278c:	6a 00                	push   $0x0
  pushl $221
  10278e:	68 dd 00 00 00       	push   $0xdd
  jmp __alltraps
  102793:	e9 98 01 00 00       	jmp    102930 <__alltraps>

00102798 <vector222>:
.globl vector222
vector222:
  pushl $0
  102798:	6a 00                	push   $0x0
  pushl $222
  10279a:	68 de 00 00 00       	push   $0xde
  jmp __alltraps
  10279f:	e9 8c 01 00 00       	jmp    102930 <__alltraps>

001027a4 <vector223>:
.globl vector223
vector223:
  pushl $0
  1027a4:	6a 00                	push   $0x0
  pushl $223
  1027a6:	68 df 00 00 00       	push   $0xdf
  jmp __alltraps
  1027ab:	e9 80 01 00 00       	jmp    102930 <__alltraps>

001027b0 <vector224>:
.globl vector224
vector224:
  pushl $0
  1027b0:	6a 00                	push   $0x0
  pushl $224
  1027b2:	68 e0 00 00 00       	push   $0xe0
  jmp __alltraps
  1027b7:	e9 74 01 00 00       	jmp    102930 <__alltraps>

001027bc <vector225>:
.globl vector225
vector225:
  pushl $0
  1027bc:	6a 00                	push   $0x0
  pushl $225
  1027be:	68 e1 00 00 00       	push   $0xe1
  jmp __alltraps
  1027c3:	e9 68 01 00 00       	jmp    102930 <__alltraps>

001027c8 <vector226>:
.globl vector226
vector226:
  pushl $0
  1027c8:	6a 00                	push   $0x0
  pushl $226
  1027ca:	68 e2 00 00 00       	push   $0xe2
  jmp __alltraps
  1027cf:	e9 5c 01 00 00       	jmp    102930 <__alltraps>

001027d4 <vector227>:
.globl vector227
vector227:
  pushl $0
  1027d4:	6a 00                	push   $0x0
  pushl $227
  1027d6:	68 e3 00 00 00       	push   $0xe3
  jmp __alltraps
  1027db:	e9 50 01 00 00       	jmp    102930 <__alltraps>

001027e0 <vector228>:
.globl vector228
vector228:
  pushl $0
  1027e0:	6a 00                	push   $0x0
  pushl $228
  1027e2:	68 e4 00 00 00       	push   $0xe4
  jmp __alltraps
  1027e7:	e9 44 01 00 00       	jmp    102930 <__alltraps>

001027ec <vector229>:
.globl vector229
vector229:
  pushl $0
  1027ec:	6a 00                	push   $0x0
  pushl $229
  1027ee:	68 e5 00 00 00       	push   $0xe5
  jmp __alltraps
  1027f3:	e9 38 01 00 00       	jmp    102930 <__alltraps>

001027f8 <vector230>:
.globl vector230
vector230:
  pushl $0
  1027f8:	6a 00                	push   $0x0
  pushl $230
  1027fa:	68 e6 00 00 00       	push   $0xe6
  jmp __alltraps
  1027ff:	e9 2c 01 00 00       	jmp    102930 <__alltraps>

00102804 <vector231>:
.globl vector231
vector231:
  pushl $0
  102804:	6a 00                	push   $0x0
  pushl $231
  102806:	68 e7 00 00 00       	push   $0xe7
  jmp __alltraps
  10280b:	e9 20 01 00 00       	jmp    102930 <__alltraps>

00102810 <vector232>:
.globl vector232
vector232:
  pushl $0
  102810:	6a 00                	push   $0x0
  pushl $232
  102812:	68 e8 00 00 00       	push   $0xe8
  jmp __alltraps
  102817:	e9 14 01 00 00       	jmp    102930 <__alltraps>

0010281c <vector233>:
.globl vector233
vector233:
  pushl $0
  10281c:	6a 00                	push   $0x0
  pushl $233
  10281e:	68 e9 00 00 00       	push   $0xe9
  jmp __alltraps
  102823:	e9 08 01 00 00       	jmp    102930 <__alltraps>

00102828 <vector234>:
.globl vector234
vector234:
  pushl $0
  102828:	6a 00                	push   $0x0
  pushl $234
  10282a:	68 ea 00 00 00       	push   $0xea
  jmp __alltraps
  10282f:	e9 fc 00 00 00       	jmp    102930 <__alltraps>

00102834 <vector235>:
.globl vector235
vector235:
  pushl $0
  102834:	6a 00                	push   $0x0
  pushl $235
  102836:	68 eb 00 00 00       	push   $0xeb
  jmp __alltraps
  10283b:	e9 f0 00 00 00       	jmp    102930 <__alltraps>

00102840 <vector236>:
.globl vector236
vector236:
  pushl $0
  102840:	6a 00                	push   $0x0
  pushl $236
  102842:	68 ec 00 00 00       	push   $0xec
  jmp __alltraps
  102847:	e9 e4 00 00 00       	jmp    102930 <__alltraps>

0010284c <vector237>:
.globl vector237
vector237:
  pushl $0
  10284c:	6a 00                	push   $0x0
  pushl $237
  10284e:	68 ed 00 00 00       	push   $0xed
  jmp __alltraps
  102853:	e9 d8 00 00 00       	jmp    102930 <__alltraps>

00102858 <vector238>:
.globl vector238
vector238:
  pushl $0
  102858:	6a 00                	push   $0x0
  pushl $238
  10285a:	68 ee 00 00 00       	push   $0xee
  jmp __alltraps
  10285f:	e9 cc 00 00 00       	jmp    102930 <__alltraps>

00102864 <vector239>:
.globl vector239
vector239:
  pushl $0
  102864:	6a 00                	push   $0x0
  pushl $239
  102866:	68 ef 00 00 00       	push   $0xef
  jmp __alltraps
  10286b:	e9 c0 00 00 00       	jmp    102930 <__alltraps>

00102870 <vector240>:
.globl vector240
vector240:
  pushl $0
  102870:	6a 00                	push   $0x0
  pushl $240
  102872:	68 f0 00 00 00       	push   $0xf0
  jmp __alltraps
  102877:	e9 b4 00 00 00       	jmp    102930 <__alltraps>

0010287c <vector241>:
.globl vector241
vector241:
  pushl $0
  10287c:	6a 00                	push   $0x0
  pushl $241
  10287e:	68 f1 00 00 00       	push   $0xf1
  jmp __alltraps
  102883:	e9 a8 00 00 00       	jmp    102930 <__alltraps>

00102888 <vector242>:
.globl vector242
vector242:
  pushl $0
  102888:	6a 00                	push   $0x0
  pushl $242
  10288a:	68 f2 00 00 00       	push   $0xf2
  jmp __alltraps
  10288f:	e9 9c 00 00 00       	jmp    102930 <__alltraps>

00102894 <vector243>:
.globl vector243
vector243:
  pushl $0
  102894:	6a 00                	push   $0x0
  pushl $243
  102896:	68 f3 00 00 00       	push   $0xf3
  jmp __alltraps
  10289b:	e9 90 00 00 00       	jmp    102930 <__alltraps>

001028a0 <vector244>:
.globl vector244
vector244:
  pushl $0
  1028a0:	6a 00                	push   $0x0
  pushl $244
  1028a2:	68 f4 00 00 00       	push   $0xf4
  jmp __alltraps
  1028a7:	e9 84 00 00 00       	jmp    102930 <__alltraps>

001028ac <vector245>:
.globl vector245
vector245:
  pushl $0
  1028ac:	6a 00                	push   $0x0
  pushl $245
  1028ae:	68 f5 00 00 00       	push   $0xf5
  jmp __alltraps
  1028b3:	e9 78 00 00 00       	jmp    102930 <__alltraps>

001028b8 <vector246>:
.globl vector246
vector246:
  pushl $0
  1028b8:	6a 00                	push   $0x0
  pushl $246
  1028ba:	68 f6 00 00 00       	push   $0xf6
  jmp __alltraps
  1028bf:	e9 6c 00 00 00       	jmp    102930 <__alltraps>

001028c4 <vector247>:
.globl vector247
vector247:
  pushl $0
  1028c4:	6a 00                	push   $0x0
  pushl $247
  1028c6:	68 f7 00 00 00       	push   $0xf7
  jmp __alltraps
  1028cb:	e9 60 00 00 00       	jmp    102930 <__alltraps>

001028d0 <vector248>:
.globl vector248
vector248:
  pushl $0
  1028d0:	6a 00                	push   $0x0
  pushl $248
  1028d2:	68 f8 00 00 00       	push   $0xf8
  jmp __alltraps
  1028d7:	e9 54 00 00 00       	jmp    102930 <__alltraps>

001028dc <vector249>:
.globl vector249
vector249:
  pushl $0
  1028dc:	6a 00                	push   $0x0
  pushl $249
  1028de:	68 f9 00 00 00       	push   $0xf9
  jmp __alltraps
  1028e3:	e9 48 00 00 00       	jmp    102930 <__alltraps>

001028e8 <vector250>:
.globl vector250
vector250:
  pushl $0
  1028e8:	6a 00                	push   $0x0
  pushl $250
  1028ea:	68 fa 00 00 00       	push   $0xfa
  jmp __alltraps
  1028ef:	e9 3c 00 00 00       	jmp    102930 <__alltraps>

001028f4 <vector251>:
.globl vector251
vector251:
  pushl $0
  1028f4:	6a 00                	push   $0x0
  pushl $251
  1028f6:	68 fb 00 00 00       	push   $0xfb
  jmp __alltraps
  1028fb:	e9 30 00 00 00       	jmp    102930 <__alltraps>

00102900 <vector252>:
.globl vector252
vector252:
  pushl $0
  102900:	6a 00                	push   $0x0
  pushl $252
  102902:	68 fc 00 00 00       	push   $0xfc
  jmp __alltraps
  102907:	e9 24 00 00 00       	jmp    102930 <__alltraps>

0010290c <vector253>:
.globl vector253
vector253:
  pushl $0
  10290c:	6a 00                	push   $0x0
  pushl $253
  10290e:	68 fd 00 00 00       	push   $0xfd
  jmp __alltraps
  102913:	e9 18 00 00 00       	jmp    102930 <__alltraps>

00102918 <vector254>:
.globl vector254
vector254:
  pushl $0
  102918:	6a 00                	push   $0x0
  pushl $254
  10291a:	68 fe 00 00 00       	push   $0xfe
  jmp __alltraps
  10291f:	e9 0c 00 00 00       	jmp    102930 <__alltraps>

00102924 <vector255>:
.globl vector255
vector255:
  pushl $0
  102924:	6a 00                	push   $0x0
  pushl $255
  102926:	68 ff 00 00 00       	push   $0xff
  jmp __alltraps
  10292b:	e9 00 00 00 00       	jmp    102930 <__alltraps>

00102930 <__alltraps>:
.text
.globl __alltraps
__alltraps:
    # push registers to build a trap frame
    # therefore make the stack look like a struct trapframe
    pushl %ds
  102930:	1e                   	push   %ds
    pushl %es
  102931:	06                   	push   %es
    pushl %fs
  102932:	0f a0                	push   %fs
    pushl %gs
  102934:	0f a8                	push   %gs
    pushal
  102936:	60                   	pusha  

    # load GD_KDATA into %ds and %es to set up data segments for kernel
    movl $GD_KDATA, %eax
  102937:	b8 10 00 00 00       	mov    $0x10,%eax
    movw %ax, %ds
  10293c:	8e d8                	mov    %eax,%ds
    movw %ax, %es
  10293e:	8e c0                	mov    %eax,%es

    # push %esp to pass a pointer to the trapframe as an argument to trap()
    pushl %esp
  102940:	54                   	push   %esp

    # call trap(tf), where tf=%esp
    call trap
  102941:	e8 61 f5 ff ff       	call   101ea7 <trap>

    # pop the pushed stack pointer
    popl %esp
  102946:	5c                   	pop    %esp

00102947 <__trapret>:

    # return falls through to trapret...
.globl __trapret
__trapret:
    # restore registers from stack
    popal
  102947:	61                   	popa   

    # restore %ds, %es, %fs and %gs
    popl %gs
  102948:	0f a9                	pop    %gs
    popl %fs
  10294a:	0f a1                	pop    %fs
    popl %es
  10294c:	07                   	pop    %es
    popl %ds
  10294d:	1f                   	pop    %ds

    # get rid of the trap number and error code
    addl $0x8, %esp
  10294e:	83 c4 08             	add    $0x8,%esp
    iret
  102951:	cf                   	iret   

00102952 <page2ppn>:

extern struct Page *pages;
extern size_t npage;

static inline ppn_t
page2ppn(struct Page *page) {
  102952:	55                   	push   %ebp
  102953:	89 e5                	mov    %esp,%ebp
    return page - pages;
  102955:	8b 45 08             	mov    0x8(%ebp),%eax
  102958:	8b 15 b8 89 11 00    	mov    0x1189b8,%edx
  10295e:	29 d0                	sub    %edx,%eax
  102960:	c1 f8 02             	sar    $0x2,%eax
  102963:	69 c0 cd cc cc cc    	imul   $0xcccccccd,%eax,%eax
}
  102969:	5d                   	pop    %ebp
  10296a:	c3                   	ret    

0010296b <page2pa>:

static inline uintptr_t
page2pa(struct Page *page) {
  10296b:	55                   	push   %ebp
  10296c:	89 e5                	mov    %esp,%ebp
    return page2ppn(page) << PGSHIFT;
  10296e:	ff 75 08             	pushl  0x8(%ebp)
  102971:	e8 dc ff ff ff       	call   102952 <page2ppn>
  102976:	83 c4 04             	add    $0x4,%esp
  102979:	c1 e0 0c             	shl    $0xc,%eax
}
  10297c:	c9                   	leave  
  10297d:	c3                   	ret    

0010297e <pa2page>:

static inline struct Page *
pa2page(uintptr_t pa) {
  10297e:	55                   	push   %ebp
  10297f:	89 e5                	mov    %esp,%ebp
  102981:	83 ec 08             	sub    $0x8,%esp
    if (PPN(pa) >= npage) {
  102984:	8b 45 08             	mov    0x8(%ebp),%eax
  102987:	c1 e8 0c             	shr    $0xc,%eax
  10298a:	89 c2                	mov    %eax,%edx
  10298c:	a1 c0 88 11 00       	mov    0x1188c0,%eax
  102991:	39 c2                	cmp    %eax,%edx
  102993:	72 14                	jb     1029a9 <pa2page+0x2b>
        panic("pa2page called with invalid pa");
  102995:	83 ec 04             	sub    $0x4,%esp
  102998:	68 30 63 10 00       	push   $0x106330
  10299d:	6a 5a                	push   $0x5a
  10299f:	68 4f 63 10 00       	push   $0x10634f
  1029a4:	e8 2c da ff ff       	call   1003d5 <__panic>
    }
    return &pages[PPN(pa)];
  1029a9:	8b 0d b8 89 11 00    	mov    0x1189b8,%ecx
  1029af:	8b 45 08             	mov    0x8(%ebp),%eax
  1029b2:	c1 e8 0c             	shr    $0xc,%eax
  1029b5:	89 c2                	mov    %eax,%edx
  1029b7:	89 d0                	mov    %edx,%eax
  1029b9:	c1 e0 02             	shl    $0x2,%eax
  1029bc:	01 d0                	add    %edx,%eax
  1029be:	c1 e0 02             	shl    $0x2,%eax
  1029c1:	01 c8                	add    %ecx,%eax
}
  1029c3:	c9                   	leave  
  1029c4:	c3                   	ret    

001029c5 <page2kva>:

static inline void *
page2kva(struct Page *page) {
  1029c5:	55                   	push   %ebp
  1029c6:	89 e5                	mov    %esp,%ebp
  1029c8:	83 ec 18             	sub    $0x18,%esp
    return KADDR(page2pa(page));
  1029cb:	ff 75 08             	pushl  0x8(%ebp)
  1029ce:	e8 98 ff ff ff       	call   10296b <page2pa>
  1029d3:	83 c4 04             	add    $0x4,%esp
  1029d6:	89 45 f4             	mov    %eax,-0xc(%ebp)
  1029d9:	8b 45 f4             	mov    -0xc(%ebp),%eax
  1029dc:	c1 e8 0c             	shr    $0xc,%eax
  1029df:	89 45 f0             	mov    %eax,-0x10(%ebp)
  1029e2:	a1 c0 88 11 00       	mov    0x1188c0,%eax
  1029e7:	39 45 f0             	cmp    %eax,-0x10(%ebp)
  1029ea:	72 14                	jb     102a00 <page2kva+0x3b>
  1029ec:	ff 75 f4             	pushl  -0xc(%ebp)
  1029ef:	68 60 63 10 00       	push   $0x106360
  1029f4:	6a 61                	push   $0x61
  1029f6:	68 4f 63 10 00       	push   $0x10634f
  1029fb:	e8 d5 d9 ff ff       	call   1003d5 <__panic>
  102a00:	8b 45 f4             	mov    -0xc(%ebp),%eax
  102a03:	2d 00 00 00 40       	sub    $0x40000000,%eax
}
  102a08:	c9                   	leave  
  102a09:	c3                   	ret    

00102a0a <pte2page>:
kva2page(void *kva) {
    return pa2page(PADDR(kva));
}

static inline struct Page *
pte2page(pte_t pte) {
  102a0a:	55                   	push   %ebp
  102a0b:	89 e5                	mov    %esp,%ebp
  102a0d:	83 ec 08             	sub    $0x8,%esp
    if (!(pte & PTE_P)) {
  102a10:	8b 45 08             	mov    0x8(%ebp),%eax
  102a13:	83 e0 01             	and    $0x1,%eax
  102a16:	85 c0                	test   %eax,%eax
  102a18:	75 14                	jne    102a2e <pte2page+0x24>
        panic("pte2page called with invalid pte");
  102a1a:	83 ec 04             	sub    $0x4,%esp
  102a1d:	68 84 63 10 00       	push   $0x106384
  102a22:	6a 6c                	push   $0x6c
  102a24:	68 4f 63 10 00       	push   $0x10634f
  102a29:	e8 a7 d9 ff ff       	call   1003d5 <__panic>
    }
    return pa2page(PTE_ADDR(pte));
  102a2e:	8b 45 08             	mov    0x8(%ebp),%eax
  102a31:	25 00 f0 ff ff       	and    $0xfffff000,%eax
  102a36:	83 ec 0c             	sub    $0xc,%esp
  102a39:	50                   	push   %eax
  102a3a:	e8 3f ff ff ff       	call   10297e <pa2page>
  102a3f:	83 c4 10             	add    $0x10,%esp
}
  102a42:	c9                   	leave  
  102a43:	c3                   	ret    

00102a44 <pde2page>:

static inline struct Page *
pde2page(pde_t pde) {
  102a44:	55                   	push   %ebp
  102a45:	89 e5                	mov    %esp,%ebp
  102a47:	83 ec 08             	sub    $0x8,%esp
    return pa2page(PDE_ADDR(pde));
  102a4a:	8b 45 08             	mov    0x8(%ebp),%eax
  102a4d:	25 00 f0 ff ff       	and    $0xfffff000,%eax
  102a52:	83 ec 0c             	sub    $0xc,%esp
  102a55:	50                   	push   %eax
  102a56:	e8 23 ff ff ff       	call   10297e <pa2page>
  102a5b:	83 c4 10             	add    $0x10,%esp
}
  102a5e:	c9                   	leave  
  102a5f:	c3                   	ret    

00102a60 <page_ref>:

static inline int
page_ref(struct Page *page) {
  102a60:	55                   	push   %ebp
  102a61:	89 e5                	mov    %esp,%ebp
    return page->ref;
  102a63:	8b 45 08             	mov    0x8(%ebp),%eax
  102a66:	8b 00                	mov    (%eax),%eax
}
  102a68:	5d                   	pop    %ebp
  102a69:	c3                   	ret    

00102a6a <set_page_ref>:

static inline void
set_page_ref(struct Page *page, int val) {
  102a6a:	55                   	push   %ebp
  102a6b:	89 e5                	mov    %esp,%ebp
    page->ref = val;
  102a6d:	8b 45 08             	mov    0x8(%ebp),%eax
  102a70:	8b 55 0c             	mov    0xc(%ebp),%edx
  102a73:	89 10                	mov    %edx,(%eax)
}
  102a75:	90                   	nop
  102a76:	5d                   	pop    %ebp
  102a77:	c3                   	ret    

00102a78 <page_ref_inc>:

static inline int
page_ref_inc(struct Page *page) {
  102a78:	55                   	push   %ebp
  102a79:	89 e5                	mov    %esp,%ebp
    page->ref += 1;
  102a7b:	8b 45 08             	mov    0x8(%ebp),%eax
  102a7e:	8b 00                	mov    (%eax),%eax
  102a80:	8d 50 01             	lea    0x1(%eax),%edx
  102a83:	8b 45 08             	mov    0x8(%ebp),%eax
  102a86:	89 10                	mov    %edx,(%eax)
    return page->ref;
  102a88:	8b 45 08             	mov    0x8(%ebp),%eax
  102a8b:	8b 00                	mov    (%eax),%eax
}
  102a8d:	5d                   	pop    %ebp
  102a8e:	c3                   	ret    

00102a8f <page_ref_dec>:

static inline int
page_ref_dec(struct Page *page) {
  102a8f:	55                   	push   %ebp
  102a90:	89 e5                	mov    %esp,%ebp
    page->ref -= 1;
  102a92:	8b 45 08             	mov    0x8(%ebp),%eax
  102a95:	8b 00                	mov    (%eax),%eax
  102a97:	8d 50 ff             	lea    -0x1(%eax),%edx
  102a9a:	8b 45 08             	mov    0x8(%ebp),%eax
  102a9d:	89 10                	mov    %edx,(%eax)
    return page->ref;
  102a9f:	8b 45 08             	mov    0x8(%ebp),%eax
  102aa2:	8b 00                	mov    (%eax),%eax
}
  102aa4:	5d                   	pop    %ebp
  102aa5:	c3                   	ret    

00102aa6 <__intr_save>:
#include <x86.h>
#include <intr.h>
#include <mmu.h>

static inline bool
__intr_save(void) {
  102aa6:	55                   	push   %ebp
  102aa7:	89 e5                	mov    %esp,%ebp
  102aa9:	83 ec 18             	sub    $0x18,%esp
}

static inline uint32_t
read_eflags(void) {
    uint32_t eflags;
    asm volatile ("pushfl; popl %0" : "=r" (eflags));
  102aac:	9c                   	pushf  
  102aad:	58                   	pop    %eax
  102aae:	89 45 f4             	mov    %eax,-0xc(%ebp)
    return eflags;
  102ab1:	8b 45 f4             	mov    -0xc(%ebp),%eax
    if (read_eflags() & FL_IF) {
  102ab4:	25 00 02 00 00       	and    $0x200,%eax
  102ab9:	85 c0                	test   %eax,%eax
  102abb:	74 0c                	je     102ac9 <__intr_save+0x23>
        intr_disable();
  102abd:	e8 b4 ed ff ff       	call   101876 <intr_disable>
        return 1;
  102ac2:	b8 01 00 00 00       	mov    $0x1,%eax
  102ac7:	eb 05                	jmp    102ace <__intr_save+0x28>
    }
    return 0;
  102ac9:	b8 00 00 00 00       	mov    $0x0,%eax
}
  102ace:	c9                   	leave  
  102acf:	c3                   	ret    

00102ad0 <__intr_restore>:

static inline void
__intr_restore(bool flag) {
  102ad0:	55                   	push   %ebp
  102ad1:	89 e5                	mov    %esp,%ebp
  102ad3:	83 ec 08             	sub    $0x8,%esp
    if (flag) {
  102ad6:	83 7d 08 00          	cmpl   $0x0,0x8(%ebp)
  102ada:	74 05                	je     102ae1 <__intr_restore+0x11>
        intr_enable();
  102adc:	e8 8e ed ff ff       	call   10186f <intr_enable>
    }
}
  102ae1:	90                   	nop
  102ae2:	c9                   	leave  
  102ae3:	c3                   	ret    

00102ae4 <lgdt>:
/* *
 * lgdt - load the global descriptor table register and reset the
 * data/code segement registers for kernel.
 * */
static inline void
lgdt(struct pseudodesc *pd) {
  102ae4:	55                   	push   %ebp
  102ae5:	89 e5                	mov    %esp,%ebp
    asm volatile ("lgdt (%0)" :: "r" (pd));
  102ae7:	8b 45 08             	mov    0x8(%ebp),%eax
  102aea:	0f 01 10             	lgdtl  (%eax)
    asm volatile ("movw %%ax, %%gs" :: "a" (USER_DS));
  102aed:	b8 23 00 00 00       	mov    $0x23,%eax
  102af2:	8e e8                	mov    %eax,%gs
    asm volatile ("movw %%ax, %%fs" :: "a" (USER_DS));
  102af4:	b8 23 00 00 00       	mov    $0x23,%eax
  102af9:	8e e0                	mov    %eax,%fs
    asm volatile ("movw %%ax, %%es" :: "a" (KERNEL_DS));
  102afb:	b8 10 00 00 00       	mov    $0x10,%eax
  102b00:	8e c0                	mov    %eax,%es
    asm volatile ("movw %%ax, %%ds" :: "a" (KERNEL_DS));
  102b02:	b8 10 00 00 00       	mov    $0x10,%eax
  102b07:	8e d8                	mov    %eax,%ds
    asm volatile ("movw %%ax, %%ss" :: "a" (KERNEL_DS));
  102b09:	b8 10 00 00 00       	mov    $0x10,%eax
  102b0e:	8e d0                	mov    %eax,%ss
    // reload cs
    asm volatile ("ljmp %0, $1f\n 1:\n" :: "i" (KERNEL_CS));
  102b10:	ea 17 2b 10 00 08 00 	ljmp   $0x8,$0x102b17
}
  102b17:	90                   	nop
  102b18:	5d                   	pop    %ebp
  102b19:	c3                   	ret    

00102b1a <load_esp0>:
 * load_esp0 - change the ESP0 in default task state segment,
 * so that we can use different kernel stack when we trap frame
 * user to kernel.
 * */
void
load_esp0(uintptr_t esp0) {
  102b1a:	55                   	push   %ebp
  102b1b:	89 e5                	mov    %esp,%ebp
    ts.ts_esp0 = esp0;
  102b1d:	8b 45 08             	mov    0x8(%ebp),%eax
  102b20:	a3 e4 88 11 00       	mov    %eax,0x1188e4
}
  102b25:	90                   	nop
  102b26:	5d                   	pop    %ebp
  102b27:	c3                   	ret    

00102b28 <gdt_init>:

/* gdt_init - initialize the default GDT and TSS */
static void
gdt_init(void) {
  102b28:	55                   	push   %ebp
  102b29:	89 e5                	mov    %esp,%ebp
  102b2b:	83 ec 10             	sub    $0x10,%esp
    // set boot kernel stack and default SS0
    load_esp0((uintptr_t)bootstacktop);
  102b2e:	b8 00 70 11 00       	mov    $0x117000,%eax
  102b33:	50                   	push   %eax
  102b34:	e8 e1 ff ff ff       	call   102b1a <load_esp0>
  102b39:	83 c4 04             	add    $0x4,%esp
    ts.ts_ss0 = KERNEL_DS;
  102b3c:	66 c7 05 e8 88 11 00 	movw   $0x10,0x1188e8
  102b43:	10 00 

    // initialize the TSS filed of the gdt
    gdt[SEG_TSS] = SEGTSS(STS_T32A, (uintptr_t)&ts, sizeof(ts), DPL_KERNEL);
  102b45:	66 c7 05 28 7a 11 00 	movw   $0x68,0x117a28
  102b4c:	68 00 
  102b4e:	b8 e0 88 11 00       	mov    $0x1188e0,%eax
  102b53:	66 a3 2a 7a 11 00    	mov    %ax,0x117a2a
  102b59:	b8 e0 88 11 00       	mov    $0x1188e0,%eax
  102b5e:	c1 e8 10             	shr    $0x10,%eax
  102b61:	a2 2c 7a 11 00       	mov    %al,0x117a2c
  102b66:	0f b6 05 2d 7a 11 00 	movzbl 0x117a2d,%eax
  102b6d:	83 e0 f0             	and    $0xfffffff0,%eax
  102b70:	83 c8 09             	or     $0x9,%eax
  102b73:	a2 2d 7a 11 00       	mov    %al,0x117a2d
  102b78:	0f b6 05 2d 7a 11 00 	movzbl 0x117a2d,%eax
  102b7f:	83 e0 ef             	and    $0xffffffef,%eax
  102b82:	a2 2d 7a 11 00       	mov    %al,0x117a2d
  102b87:	0f b6 05 2d 7a 11 00 	movzbl 0x117a2d,%eax
  102b8e:	83 e0 9f             	and    $0xffffff9f,%eax
  102b91:	a2 2d 7a 11 00       	mov    %al,0x117a2d
  102b96:	0f b6 05 2d 7a 11 00 	movzbl 0x117a2d,%eax
  102b9d:	83 c8 80             	or     $0xffffff80,%eax
  102ba0:	a2 2d 7a 11 00       	mov    %al,0x117a2d
  102ba5:	0f b6 05 2e 7a 11 00 	movzbl 0x117a2e,%eax
  102bac:	83 e0 f0             	and    $0xfffffff0,%eax
  102baf:	a2 2e 7a 11 00       	mov    %al,0x117a2e
  102bb4:	0f b6 05 2e 7a 11 00 	movzbl 0x117a2e,%eax
  102bbb:	83 e0 ef             	and    $0xffffffef,%eax
  102bbe:	a2 2e 7a 11 00       	mov    %al,0x117a2e
  102bc3:	0f b6 05 2e 7a 11 00 	movzbl 0x117a2e,%eax
  102bca:	83 e0 df             	and    $0xffffffdf,%eax
  102bcd:	a2 2e 7a 11 00       	mov    %al,0x117a2e
  102bd2:	0f b6 05 2e 7a 11 00 	movzbl 0x117a2e,%eax
  102bd9:	83 c8 40             	or     $0x40,%eax
  102bdc:	a2 2e 7a 11 00       	mov    %al,0x117a2e
  102be1:	0f b6 05 2e 7a 11 00 	movzbl 0x117a2e,%eax
  102be8:	83 e0 7f             	and    $0x7f,%eax
  102beb:	a2 2e 7a 11 00       	mov    %al,0x117a2e
  102bf0:	b8 e0 88 11 00       	mov    $0x1188e0,%eax
  102bf5:	c1 e8 18             	shr    $0x18,%eax
  102bf8:	a2 2f 7a 11 00       	mov    %al,0x117a2f

    // reload all segment registers
    lgdt(&gdt_pd);
  102bfd:	68 30 7a 11 00       	push   $0x117a30
  102c02:	e8 dd fe ff ff       	call   102ae4 <lgdt>
  102c07:	83 c4 04             	add    $0x4,%esp
  102c0a:	66 c7 45 fe 28 00    	movw   $0x28,-0x2(%ebp)
    asm volatile ("cli" ::: "memory");
}

static inline void
